(dp0
(S'GOAL_130'
p1
S'GOAL_126, GOAL68'
p2
tp3
(dp4
(S'false'
p5
S'true'
p6
tp7
(lp8
(dp9
S'false'
p10
F0.7975265531791067
sS'true'
p11
F0.20247344682089335
saI34365
as(S'true'
p12
S'false'
p13
tp14
(lp15
(dp16
g10
F0.7965050732807215
sg11
F0.20349492671927846
saI15966
as(S'false'
p17
S'false'
p18
tp19
(lp20
(dp21
g10
F0.7978364958325944
sg11
F0.20216350416740556
saI33834
as(S'true'
p22
S'true'
p23
tp24
(lp25
(dp26
g10
F0.0
sg11
F1.0
saI15835
ass(S'GOAL_126'
p27
S'GOAL_108, GOAL65'
p28
tp29
(dp30
(S'false'
p31
S'true'
p32
tp33
(lp34
(dp35
S'false'
p36
F0.7999152781700085
sS'true'
p37
F0.20008472182999154
saI35410
as(S'true'
p38
S'false'
p39
tp40
(lp41
(dp42
g36
F0.8011644438426647
sg37
F0.1988355561573353
saI14771
as(S'false'
p43
S'false'
p44
tp45
(lp46
(dp47
g36
F0.799703391038987
sg37
F0.20029660896101303
saI35063
as(S'true'
p48
S'true'
p49
tp50
(lp51
(dp52
g36
F0.0
sg37
F1.0
saI14756
ass(S'SNode_68'
p53
S'GOAL_66, SNode_67, VECTOR44'
p54
tp55
(dp56
(S'false'
p57
S'false'
p58
S'true'
p59
tp60
(lp61
(dp62
S'false'
p63
F0.8995485693871585
sS'true'
p64
F0.10045143061284141
saI30791
as(S'true'
p65
S'true'
p66
S'true'
p67
tp68
(lp69
(dp70
g63
F0.0
sg64
F1.0
saI6781
as(S'false'
p71
S'true'
p72
S'false'
p73
tp74
(lp75
(dp76
g63
F0.8939275475632004
sg64
F0.10607245243679958
saI7674
as(S'true'
p77
S'true'
p78
S'false'
p79
tp80
(lp81
(dp82
g63
F0.8981956872524571
sg64
F0.10180431274754291
saI6817
as(S'true'
p83
S'false'
p84
S'false'
p85
tp86
(lp87
(dp88
g63
F0.8978260869565218
sg64
F0.10217391304347827
saI4600
as(S'false'
p89
S'false'
p90
S'false'
p91
tp92
(lp93
(dp94
g63
F0.8991569495138731
sg64
F0.10084305048612681
saI30959
as(S'false'
p95
S'true'
p96
S'true'
p97
tp98
(lp99
(dp100
g63
F0.9016749776243447
sg64
F0.09832502237565528
saI7821
as(S'true'
p101
S'false'
p102
S'true'
p103
tp104
(lp105
(dp106
g63
F0.9032258064516129
sg64
F0.0967741935483871
saI4557
ass(S'VECTOR69'
p107
S''
p108
tp109
(dp110
(t(lp111
(dp112
S'false'
p113
F0.69812
sS'true'
p114
F0.30188
saI100000
ass(S'IDENTIFY10'
p115
g108
tp116
(dp117
(t(lp118
(dp119
S'false'
p120
F0.50024
sS'true'
p121
F0.49976
saI100000
ass(S'RApp12'
p122
S'COMPO16, GOAL_143'
p123
tp124
(dp125
(S'false'
p126
S'true'
p127
tp128
(lp129
(dp130
S'false'
p131
F1.0
sS'true'
p132
F0.0
saI10391
as(S'true'
p133
S'false'
p134
tp135
(lp136
(dp137
g131
F1.0
sg132
F0.0
saI39670
as(S'false'
p138
S'false'
p139
tp140
(lp141
(dp142
g131
F1.0
sg132
F0.0
saI39736
as(S'true'
p143
S'true'
p144
tp145
(lp146
(dp147
g131
F9.801038910124473e-05
sg132
F0.9999019896108987
saI10203
ass(S'GOAL_49'
p148
S'SNode_5, SNode_6, GOAL_48, TRY11'
p149
tp150
(dp151
(S'true'
p152
S'true'
p153
S'true'
p154
S'true'
p155
tp156
(lp157
(dp158
S'false'
p159
F0.00016060387055328034
sS'true'
p160
F0.9998393961294467
saI24906
as(S'false'
p161
S'true'
p162
S'false'
p163
S'false'
p164
tp165
(lp166
(dp167
g159
F0.7963386727688787
sg160
F0.2036613272311213
saI437
as(S'true'
p168
S'false'
p169
S'false'
p170
S'false'
p171
tp172
(lp173
(dp174
g159
F0.7835990888382688
sg160
F0.2164009111617312
saI439
as(S'true'
p175
S'false'
p176
S'true'
p177
S'false'
p178
tp179
(lp180
(dp181
g159
F0.8031496062992126
sg160
F0.1968503937007874
saI635
as(S'false'
p182
S'true'
p183
S'false'
p184
S'true'
p185
tp186
(lp187
(dp188
g159
F0.8064516129032258
sg160
F0.1935483870967742
saI372
as(S'true'
p189
S'true'
p190
S'true'
p191
S'false'
p192
tp193
(lp194
(dp195
g159
F0.797648319778072
sg160
F0.202351680221928
saI31722
as(S'true'
p196
S'false'
p197
S'true'
p198
S'true'
p199
tp200
(lp201
(dp202
g159
F0.8105065666041276
sg160
F0.1894934333958724
saI533
as(S'true'
p203
S'true'
p204
S'false'
p205
S'true'
p206
tp207
(lp208
(dp209
g159
F0.7970997879291569
sg160
F0.20290021207084313
saI17447
as(S'false'
p210
S'false'
p211
S'false'
p212
S'true'
p213
tp214
(lp215
(dp216
g159
F0.6
sg160
F0.4
saI5
as(S'false'
p217
S'true'
p218
S'true'
p219
S'false'
p220
tp221
(lp222
(dp223
g159
F0.7739403453689168
sg160
F0.2260596546310832
saI637
as(S'false'
p224
S'false'
p225
S'true'
p226
S'false'
p227
tp228
(lp229
(dp230
g159
F0.8571428571428571
sg160
F0.14285714285714285
saI14
as(S'false'
p231
S'true'
p232
S'true'
p233
S'true'
p234
tp235
(lp236
(dp237
g159
F0.8027888446215139
sg160
F0.19721115537848605
saI502
as(S'true'
p238
S'false'
p239
S'false'
p240
S'true'
p241
tp242
(lp243
(dp244
g159
F0.8088642659279779
sg160
F0.19113573407202217
saI361
as(S'false'
p245
S'false'
p246
S'false'
p247
S'false'
p248
tp249
(lp250
(dp251
g159
F0.6666666666666666
sg160
F0.3333333333333333
saI9
as(S'true'
p252
S'true'
p253
S'false'
p254
S'false'
p255
tp256
(lp257
(dp258
g159
F0.7983797560531586
sg160
F0.20162024394684144
saI21972
as(S'false'
p259
S'false'
p260
S'true'
p261
S'true'
p262
tp263
(lp264
(dp265
g159
F0.8888888888888888
sg160
F0.1111111111111111
saI9
ass(S'SNode_133'
p266
S'GOAL_129, NEED36'
p267
tp268
(dp269
(S'false'
p270
S'true'
p271
tp272
(lp273
(dp274
S'false'
p275
F0.7977383936030552
sS'true'
p276
F0.20226160639694474
saI33516
as(S'true'
p277
S'false'
p278
tp279
(lp280
(dp281
g275
F0.7966028942850135
sg276
F0.2033971057149865
saI16308
as(S'false'
p282
S'false'
p283
tp284
(lp285
(dp286
g275
F0.80281648559282
sg276
F0.19718351440717996
saI33872
as(S'true'
p287
S'true'
p288
tp289
(lp290
(dp291
g275
F0.0
sg276
F1.0
saI16304
ass(S'IDENTIFY39'
p292
g108
tp293
(dp294
(t(lp295
(dp296
S'false'
p297
F0.50001
sS'true'
p298
F0.49999
saI100000
ass(S'SNode_40'
p299
S'SNode_38, VALUE3'
p300
tp301
(dp302
(S'false'
p303
S'true'
p304
tp305
(lp306
(dp307
S'false'
p308
F0.9059009650371777
sS'true'
p309
F0.09409903496282233
saI31605
as(S'true'
p310
S'false'
p311
tp312
(lp313
(dp314
g308
F0.8996713184977639
sg309
F0.10032868150223612
saI18559
as(S'false'
p315
S'false'
p316
tp317
(lp318
(dp319
g308
F0.8988756867254376
sg309
F0.10112431327456241
saI31308
as(S'true'
p320
S'true'
p321
tp322
(lp323
(dp324
g308
F5.397236614853195e-05
sg309
F0.9999460276338514
saI18528
ass(S'GOAL_153'
p325
S'GOAL_108, GOAL72'
p326
tp327
(dp328
(S'false'
p329
S'true'
p330
tp331
(lp332
(dp333
S'false'
p334
F0.8030385241454151
sS'true'
p335
F0.19696147585458493
saI35017
as(S'true'
p336
S'false'
p337
tp338
(lp339
(dp340
g334
F0.7952803960127484
sg335
F0.20471960398725164
saI14747
as(S'false'
p341
S'false'
p342
tp343
(lp344
(dp345
g334
F0.7950417418772563
sg335
F0.20495825812274368
saI35456
as(S'true'
p346
S'true'
p347
tp348
(lp349
(dp350
g334
F0.0
sg335
F1.0
saI14780
ass(S'RApp6'
p351
S'COMPO16, GOAL_80'
p352
tp353
(dp354
(S'false'
p355
S'true'
p356
tp357
(lp358
(dp359
S'false'
p360
F1.0
sS'true'
p361
F0.0
saI12564
as(S'true'
p362
S'false'
p363
tp364
(lp365
(dp366
g360
F1.0
sg361
F0.0
saI37326
as(S'false'
p367
S'false'
p368
tp369
(lp370
(dp371
g360
F1.0
sg361
F0.0
saI37563
as(S'true'
p372
S'true'
p373
tp374
(lp375
(dp376
g360
F0.0
sg361
F1.0
saI12547
ass(S'APPLY77'
p377
g108
tp378
(dp379
(t(lp380
(dp381
S'false'
p382
F0.49959
sS'true'
p383
F0.50041
saI100000
ass(S'GOAL_143'
p384
S'SNode_116, SNode_132, EQUATION28'
p385
tp386
(dp387
(S'false'
p388
S'false'
p389
S'true'
p390
tp391
(lp392
(dp393
S'false'
p394
F0.7993184634448575
sS'true'
p395
F0.2006815365551425
saI32280
as(S'true'
p396
S'true'
p397
S'true'
p398
tp399
(lp400
(dp401
g394
F0.0
sg395
F1.0
saI550
as(S'false'
p402
S'true'
p403
S'false'
p404
tp405
(lp406
(dp407
g394
F0.7978260869565217
sg395
F0.20217391304347826
saI5520
as(S'true'
p408
S'true'
p409
S'false'
p410
tp411
(lp412
(dp413
g394
F0.7995365005793743
sg395
F0.20046349942062572
saI863
as(S'true'
p414
S'false'
p415
S'false'
p416
tp417
(lp418
(dp419
g394
F0.7983282945047128
sg395
F0.2016717054952872
saI5623
as(S'false'
p420
S'false'
p421
S'false'
p422
tp423
(lp424
(dp425
g394
F0.7982564596911084
sg395
F0.20174354030889163
saI47719
as(S'false'
p426
S'true'
p427
S'true'
p428
tp429
(lp430
(dp431
g394
F0.8008553862603582
sg395
F0.19914461373964182
saI3741
as(S'true'
p432
S'false'
p433
S'true'
p434
tp435
(lp436
(dp437
g394
F0.7918466522678186
sg395
F0.20815334773218142
saI3704
ass(S'SNode_131'
p438
S'GOAL_130, NEED36'
p439
tp440
(dp441
(S'false'
p442
S'true'
p443
tp444
(lp445
(dp446
S'false'
p447
F0.7965102429728442
sS'true'
p448
F0.2034897570271558
saI33584
as(S'true'
p449
S'false'
p450
tp451
(lp452
(dp453
g447
F0.80067283431455
sg448
F0.19932716568544995
saI16646
as(S'false'
p454
S'false'
p455
tp456
(lp457
(dp458
g447
F0.7982644480229021
sg448
F0.20173555197709786
saI33534
as(S'true'
p459
S'true'
p460
tp461
(lp462
(dp463
g447
F6.159152500615915e-05
sg448
F0.9999384084749938
saI16236
ass(S'SNode_65'
p464
S'SNode_29, GOAL_63, SNode_64, NULL48'
p465
tp466
(dp467
(S'true'
p468
S'true'
p469
S'true'
p470
S'true'
p471
tp472
(lp473
(dp474
S'false'
p475
F0.0
sS'true'
p476
F1.0
saI2857
as(S'false'
p477
S'true'
p478
S'false'
p479
S'false'
p480
tp481
(lp482
(dp483
g475
F0.8934046345811052
sg476
F0.10659536541889483
saI2805
as(S'true'
p484
S'false'
p485
S'false'
p486
S'false'
p487
tp488
(lp489
(dp490
g475
F0.8985221674876848
sg476
F0.10147783251231528
saI10150
as(S'true'
p491
S'false'
p492
S'true'
p493
S'false'
p494
tp495
(lp496
(dp497
g475
F0.9079429735234216
sg476
F0.09205702647657842
saI2455
as(S'false'
p498
S'true'
p499
S'false'
p500
S'true'
p501
tp502
(lp503
(dp504
g475
F0.9077669902912622
sg476
F0.09223300970873786
saI2678
as(S'true'
p505
S'true'
p506
S'true'
p507
S'false'
p508
tp509
(lp510
(dp511
g475
F0.9045599151643691
sg476
F0.09544008483563096
saI2829
as(S'true'
p512
S'false'
p513
S'true'
p514
S'true'
p515
tp516
(lp517
(dp518
g475
F0.9083495145631068
sg476
F0.0916504854368932
saI2575
as(S'true'
p519
S'true'
p520
S'false'
p521
S'true'
p522
tp523
(lp524
(dp525
g475
F0.9145755472504005
sg476
F0.08542445274959957
saI1873
as(S'false'
p526
S'false'
p527
S'false'
p528
S'true'
p529
tp530
(lp531
(dp532
g475
F0.8975073313782991
sg476
F0.10249266862170088
saI20460
as(S'false'
p533
S'true'
p534
S'true'
p535
S'false'
p536
tp537
(lp538
(dp539
g475
F0.8930586215354427
sg476
F0.10694137846455727
saI4077
as(S'false'
p540
S'false'
p541
S'true'
p542
S'false'
p543
tp544
(lp545
(dp546
g475
F0.8978400467016929
sg476
F0.10215995329830706
saI5139
as(S'false'
p547
S'true'
p548
S'true'
p549
S'true'
p550
tp551
(lp552
(dp553
g475
F0.8974789915966387
sg476
F0.10252100840336134
saI4165
as(S'true'
p554
S'false'
p555
S'false'
p556
S'true'
p557
tp558
(lp559
(dp560
g475
F0.9009078616959629
sg476
F0.09909213830403708
saI10354
as(S'false'
p561
S'false'
p562
S'false'
p563
S'false'
p564
tp565
(lp566
(dp567
g475
F0.9001657404699229
sg476
F0.09983425953007702
saI20514
as(S'true'
p568
S'true'
p569
S'false'
p570
S'false'
p571
tp572
(lp573
(dp574
g475
F0.8979375991538868
sg476
F0.10206240084611316
saI1891
as(S'false'
p575
S'false'
p576
S'true'
p577
S'true'
p578
tp579
(lp580
(dp581
g475
F0.8939745075318656
sg476
F0.10602549246813442
saI5178
ass(S'SNode_37'
p582
S'GOAL_98, IDENTIFY22'
p583
tp584
(dp585
(S'false'
p586
S'true'
p587
tp588
(lp589
(dp590
S'false'
p591
F0.8006471084042525
sS'true'
p592
F0.19935289159574757
saI36779
as(S'true'
p593
S'false'
p594
tp595
(lp596
(dp597
g591
F0.7985595147839272
sg592
F0.20144048521607277
saI13190
as(S'false'
p598
S'false'
p599
tp600
(lp601
(dp602
g591
F0.8029771137779955
sg592
F0.1970228862220045
saI36747
as(S'true'
p603
S'true'
p604
tp605
(lp606
(dp607
g591
F0.00022583559168925022
sg592
F0.9997741644083108
saI13284
ass(S'SNode_94'
p608
S'SNode_16, SNode_33, GOAL_87, WEIGHT56'
p609
tp610
(dp611
(S'true'
p612
S'true'
p613
S'true'
p614
S'true'
p615
tp616
(lp617
(dp618
S'false'
p619
F0.0001372495196266813
sS'true'
p620
F0.9998627504803733
saI21858
as(S'false'
p621
S'true'
p622
S'false'
p623
S'false'
p624
tp625
(lp626
(dp627
g619
F0.8978494623655914
sg620
F0.10215053763440861
saI372
as(S'true'
p628
S'false'
p629
S'false'
p630
S'false'
p631
tp632
(lp633
(dp634
g619
F0.9091836734693878
sg620
F0.09081632653061225
saI1960
as(S'true'
p635
S'false'
p636
S'true'
p637
S'false'
p638
tp639
(lp640
(dp641
g619
F0.8961605584642234
sg620
F0.10383944153577661
saI1146
as(S'false'
p642
S'true'
p643
S'false'
p644
S'true'
p645
tp646
(lp647
(dp648
g619
F0.9108433734939759
sg620
F0.0891566265060241
saI830
as(S'true'
p649
S'true'
p650
S'true'
p651
S'false'
p652
tp653
(lp654
(dp655
g619
F0.8982347937048064
sg620
F0.10176520629519353
saI9404
as(S'true'
p656
S'false'
p657
S'true'
p658
S'true'
p659
tp660
(lp661
(dp662
g619
F0.895648825567963
sg620
F0.10435117443203697
saI2597
as(S'true'
p663
S'true'
p664
S'false'
p665
S'true'
p666
tp667
(lp668
(dp669
g619
F0.900012746972594
sg620
F0.09998725302740599
saI39225
as(S'false'
p670
S'false'
p671
S'false'
p672
S'true'
p673
tp674
(lp675
(dp676
g619
F0.9021739130434783
sg620
F0.09782608695652174
saI92
as(S'false'
p677
S'true'
p678
S'true'
p679
S'false'
p680
tp681
(lp682
(dp683
g619
F0.9192825112107623
sg620
F0.08071748878923767
saI223
as(S'false'
p684
S'false'
p685
S'true'
p686
S'false'
p687
tp688
(lp689
(dp690
g619
F0.7894736842105263
sg620
F0.21052631578947367
saI19
as(S'false'
p691
S'true'
p692
S'true'
p693
S'true'
p694
tp695
(lp696
(dp697
g619
F0.8917647058823529
sg620
F0.10823529411764705
saI425
as(S'true'
p698
S'false'
p699
S'false'
p700
S'true'
p701
tp702
(lp703
(dp704
g619
F0.8986839356590767
sg620
F0.10131606434092333
saI4787
as(S'false'
p705
S'false'
p706
S'false'
p707
S'false'
p708
tp709
(lp710
(dp711
g619
F0.896551724137931
sg620
F0.10344827586206896
saI29
as(S'true'
p712
S'true'
p713
S'false'
p714
S'false'
p715
tp716
(lp717
(dp718
g619
F0.9011422515308526
sg620
F0.09885774846914744
saI16984
as(S'false'
p719
S'false'
p720
S'true'
p721
S'true'
p722
tp723
(lp724
(dp725
g619
F0.9183673469387755
sg620
F0.08163265306122448
saI49
ass(S'SNode_24'
p726
S'SNode_21, VALUE3'
p727
tp728
(dp729
(S'false'
p730
S'true'
p731
tp732
(lp733
(dp734
S'false'
p735
F0.9023565427879824
sS'true'
p736
F0.09764345721201766
saI28092
as(S'true'
p737
S'false'
p738
tp739
(lp740
(dp741
g735
F0.8991869918699187
sg736
F0.1008130081300813
saI21525
as(S'false'
p742
S'false'
p743
tp744
(lp745
(dp746
g735
F0.8992661068379084
sg736
F0.1007338931620916
saI28342
as(S'true'
p747
S'true'
p748
tp749
(lp750
(dp751
g735
F0.00013610997686130393
sg736
F0.9998638900231387
saI22041
ass(S'APPLY32'
p752
g108
tp753
(dp754
(t(lp755
(dp756
S'false'
p757
F0.50089
sS'true'
p758
F0.49911
saI100000
ass(S'SNode_43'
p759
S'SNode_42, GOAL_53, IDENTIFY39'
p760
tp761
(dp762
(S'false'
p763
S'false'
p764
S'true'
p765
tp766
(lp767
(dp768
S'false'
p769
F0.8011120615911035
sS'true'
p770
F0.1988879384088965
saI21042
as(S'true'
p771
S'true'
p772
S'true'
p773
tp774
(lp775
(dp776
g769
F0.0
sg770
F1.0
saI5536
as(S'false'
p777
S'true'
p778
S'false'
p779
tp780
(lp781
(dp782
g769
F0.8112209383266045
sg770
F0.1887790616733955
saI7183
as(S'true'
p783
S'true'
p784
S'false'
p785
tp786
(lp787
(dp788
g769
F0.7991023339317774
sg770
F0.20089766606822262
saI5570
as(S'true'
p789
S'false'
p790
S'false'
p791
tp792
(lp793
(dp794
g769
F0.8057505233345648
sg770
F0.1942494766654353
saI16242
as(S'false'
p795
S'false'
p796
S'false'
p797
tp798
(lp799
(dp800
g769
F0.8001999428734647
sg770
F0.19980005712653529
saI21006
as(S'false'
p801
S'true'
p802
S'true'
p803
tp804
(lp805
(dp806
g769
F0.7941014332965821
sg770
F0.20589856670341786
saI7256
as(S'true'
p807
S'false'
p808
S'true'
p809
tp810
(lp811
(dp812
g769
F0.8024744819053511
sg770
F0.19752551809464894
saI16165
ass(S'RApp8'
p813
S'NEED36, GOAL_111'
p814
tp815
(dp816
(S'false'
p817
S'true'
p818
tp819
(lp820
(dp821
S'false'
p822
F1.0
sS'true'
p823
F0.0
saI14863
as(S'true'
p824
S'false'
p825
tp826
(lp827
(dp828
g822
F1.0
sg823
F0.0
saI35233
as(S'false'
p829
S'false'
p830
tp831
(lp832
(dp833
g822
F1.0
sg823
F0.0
saI35317
as(S'true'
p834
S'true'
p835
tp836
(lp837
(dp838
g822
F0.00013710838417769247
sg823
F0.9998628916158223
saI14587
ass(S'GOAL_69'
p839
S'SNode_54, GOAL_62, RESOLVE40'
p840
tp841
(dp842
(S'false'
p843
S'false'
p844
S'true'
p845
tp846
(lp847
(dp848
S'false'
p849
F0.803797724604235
sS'true'
p850
F0.196202275395765
saI24699
as(S'true'
p851
S'true'
p852
S'true'
p853
tp854
(lp855
(dp856
g849
F0.0
sg850
F1.0
saI4535
as(S'false'
p857
S'true'
p858
S'false'
p859
tp860
(lp861
(dp862
g849
F0.8036534140861581
sg850
F0.19634658591384194
saI10237
as(S'true'
p863
S'true'
p864
S'false'
p865
tp866
(lp867
(dp868
g849
F0.8010740657865294
sg850
F0.19892593421347057
saI4469
as(S'true'
p869
S'false'
p870
S'false'
p871
tp872
(lp873
(dp874
g849
F0.7972087724295073
sg850
F0.20279122757049273
saI10533
as(S'false'
p875
S'false'
p876
S'false'
p877
tp878
(lp879
(dp880
g849
F0.7995815212931813
sg850
F0.20041847870681875
saI24374
as(S'false'
p881
S'true'
p882
S'true'
p883
tp884
(lp885
(dp886
g849
F0.7952431188261245
sg850
F0.20475688117387553
saI10427
as(S'true'
p887
S'false'
p888
S'true'
p889
tp890
(lp891
(dp892
g849
F0.8025358940891292
sg850
F0.19746410591087077
saI10726
ass(S'TRY25'
p893
g108
tp894
(dp895
(t(lp896
(dp897
S'false'
p898
F0.10049
sS'true'
p899
F0.89951
saI100000
ass(S'RApp11'
p900
S'VECTOR27, GOAL_142'
p901
tp902
(dp903
(S'false'
p904
S'true'
p905
tp906
(lp907
(dp908
S'false'
p909
F1.0
sS'true'
p910
F0.0
saI10332
as(S'true'
p911
S'false'
p912
tp913
(lp914
(dp915
g909
F1.0
sg910
F0.0
saI39564
as(S'false'
p916
S'false'
p917
tp918
(lp919
(dp920
g909
F1.0
sg910
F0.0
saI39477
as(S'true'
p921
S'true'
p922
tp923
(lp924
(dp925
g909
F0.0
sg910
F1.0
saI10627
ass(S'SNode_86'
p926
S'GOAL_84, SYSTEM46'
p927
tp928
(dp929
(S'false'
p930
S'true'
p931
tp932
(lp933
(dp934
S'false'
p935
F0.8972927351814581
sS'true'
p936
F0.10270726481854184
saI30806
as(S'true'
p937
S'false'
p938
tp939
(lp940
(dp941
g935
F0.8989941105957159
sg936
F0.10100588940428415
saI19187
as(S'false'
p942
S'false'
p943
tp944
(lp945
(dp946
g935
F0.9012494698724431
sg936
F0.09875053012755684
saI30653
as(S'true'
p947
S'true'
p948
tp949
(lp950
(dp951
g935
F0.00010333781130515655
sg936
F0.9998966621886949
saI19354
ass(S'SNode_135'
p952
S'SNode_92, SNode_93, GOAL_129, SNode_133, VECTOR69'
p953
tp954
(dp955
(S'false'
p956
S'false'
p957
S'false'
p958
S'true'
p959
S'false'
p960
tp961
(lp962
(dp963
S'false'
p964
F0.8980135658914729
sS'true'
p965
F0.10198643410852713
saI4128
as(S'true'
p966
S'true'
p967
S'false'
p968
S'true'
p969
S'true'
p970
tp971
(lp972
(dp973
g964
F0.9213483146067416
sg965
F0.07865168539325842
saI445
as(S'true'
p974
S'true'
p975
S'false'
p976
S'false'
p977
S'false'
p978
tp979
(lp980
(dp981
g964
F0.8999290276792051
sg965
F0.10007097232079488
saI4227
as(S'true'
p982
S'false'
p983
S'true'
p984
S'true'
p985
S'true'
p986
tp987
(lp988
(dp989
g964
F0.9112808460634547
sg965
F0.08871915393654524
saI1702
as(S'true'
p990
S'true'
p991
S'false'
p992
S'false'
p993
S'true'
p994
tp995
(lp996
(dp997
g964
F0.8968784838350056
sg965
F0.10312151616499443
saI1794
as(S'false'
p998
S'true'
p999
S'true'
p1000
S'true'
p1001
S'true'
p1002
tp1003
(lp1004
(dp1005
g964
F0.906496062992126
sg965
F0.09350393700787402
saI1016
as(S'false'
p1006
S'true'
p1007
S'false'
p1008
S'false'
p1009
S'true'
p1010
tp1011
(lp1012
(dp1013
g964
F0.9067022086824067
sg965
F0.0932977913175933
saI2626
as(S'true'
p1014
S'true'
p1015
S'false'
p1016
S'true'
p1017
S'false'
p1018
tp1019
(lp1020
(dp1021
g964
F0.9005681818181818
sg965
F0.09943181818181818
saI1056
as(S'false'
p1022
S'false'
p1023
S'true'
p1024
S'true'
p1025
S'false'
p1026
tp1027
(lp1028
(dp1029
g964
F0.8953603158933859
sg965
F0.10463968410661402
saI6078
as(S'false'
p1030
S'true'
p1031
S'true'
p1032
S'false'
p1033
S'true'
p1034
tp1035
(lp1036
(dp1037
g964
F0.8885448916408669
sg965
F0.11145510835913312
saI646
as(S'false'
p1038
S'false'
p1039
S'true'
p1040
S'false'
p1041
S'true'
p1042
tp1043
(lp1044
(dp1045
g964
F0.8926253687315634
sg965
F0.10737463126843658
saI1695
as(S'true'
p1046
S'true'
p1047
S'true'
p1048
S'true'
p1049
S'false'
p1050
tp1051
(lp1052
(dp1053
g964
F0.9180771834800271
sg965
F0.08192281651997292
saI1477
as(S'false'
p1054
S'false'
p1055
S'true'
p1056
S'false'
p1057
S'false'
p1058
tp1059
(lp1060
(dp1061
g964
F0.9043392504930966
sg965
F0.09566074950690336
saI4056
as(S'true'
p1062
S'false'
p1063
S'true'
p1064
S'false'
p1065
S'false'
p1066
tp1067
(lp1068
(dp1069
g964
F0.8912875867386276
sg965
F0.1087124132613724
saI2594
as(S'true'
p1070
S'true'
p1071
S'true'
p1072
S'true'
p1073
S'true'
p1074
tp1075
(lp1076
(dp1077
g964
F0.0
sg965
F1.0
saI639
as(S'false'
p1078
S'true'
p1079
S'false'
p1080
S'true'
p1081
S'false'
p1082
tp1083
(lp1084
(dp1085
g964
F0.902
sg965
F0.098
saI1500
as(S'true'
p1086
S'false'
p1087
S'false'
p1088
S'true'
p1089
S'true'
p1090
tp1091
(lp1092
(dp1093
g964
F0.8960603520536463
sg965
F0.10393964794635373
saI1193
as(S'true'
p1094
S'false'
p1095
S'true'
p1096
S'true'
p1097
S'false'
p1098
tp1099
(lp1100
(dp1101
g964
F0.9014012738853503
sg965
F0.09859872611464968
saI3925
as(S'false'
p1102
S'false'
p1103
S'false'
p1104
S'false'
p1105
S'false'
p1106
tp1107
(lp1108
(dp1109
g964
F0.8945165856360391
sg965
F0.10548341436396086
saI16249
as(S'false'
p1110
S'true'
p1111
S'false'
p1112
S'true'
p1113
S'true'
p1114
tp1115
(lp1116
(dp1117
g964
F0.9023668639053254
sg965
F0.09763313609467456
saI676
as(S'false'
p1118
S'true'
p1119
S'true'
p1120
S'false'
p1121
S'false'
p1122
tp1123
(lp1124
(dp1125
g964
F0.8895348837209303
sg965
F0.11046511627906977
saI1376
as(S'false'
p1126
S'false'
p1127
S'false'
p1128
S'false'
p1129
S'true'
p1130
tp1131
(lp1132
(dp1133
g964
F0.8967013888888888
sg965
F0.1032986111111111
saI6912
as(S'false'
p1134
S'false'
p1135
S'true'
p1136
S'true'
p1137
S'true'
p1138
tp1139
(lp1140
(dp1141
g964
F0.898062015503876
sg965
F0.10193798449612403
saI2580
as(S'true'
p1142
S'false'
p1143
S'false'
p1144
S'false'
p1145
S'true'
p1146
tp1147
(lp1148
(dp1149
g964
F0.9092984640929846
sg965
F0.09070153590701537
saI4818
as(S'false'
p1150
S'true'
p1151
S'false'
p1152
S'false'
p1153
S'false'
p1154
tp1155
(lp1156
(dp1157
g964
F0.9068403908794789
sg965
F0.09315960912052117
saI6140
as(S'true'
p1158
S'false'
p1159
S'true'
p1160
S'false'
p1161
S'true'
p1162
tp1163
(lp1164
(dp1165
g964
F0.8974137931034483
sg965
F0.10258620689655172
saI1160
as(S'true'
p1166
S'true'
p1167
S'true'
p1168
S'false'
p1169
S'true'
p1170
tp1171
(lp1172
(dp1173
g964
F0.9066985645933014
sg965
F0.09330143540669857
saI418
as(S'false'
p1174
S'false'
p1175
S'false'
p1176
S'true'
p1177
S'true'
p1178
tp1179
(lp1180
(dp1181
g964
F0.8993576017130621
sg965
F0.1006423982869379
saI1868
as(S'true'
p1182
S'true'
p1183
S'true'
p1184
S'false'
p1185
S'false'
p1186
tp1187
(lp1188
(dp1189
g964
F0.8977055449330784
sg965
F0.1022944550669216
saI1046
as(S'true'
p1190
S'false'
p1191
S'false'
p1192
S'true'
p1193
S'false'
p1194
tp1195
(lp1196
(dp1197
g964
F0.9031635802469136
sg965
F0.09683641975308642
saI2592
as(S'true'
p1198
S'false'
p1199
S'false'
p1200
S'false'
p1201
S'false'
p1202
tp1203
(lp1204
(dp1205
g964
F0.9053206735936941
sg965
F0.09467932640630598
saI11164
as(S'false'
p1206
S'true'
p1207
S'true'
p1208
S'true'
p1209
S'false'
p1210
tp1211
(lp1212
(dp1213
g964
F0.8974591651542649
sg965
F0.10254083484573502
saI2204
ass(S'FIND49'
p1214
g108
tp1215
(dp1216
(t(lp1217
(dp1218
S'false'
p1219
F0.5009
sS'true'
p1220
F0.4991
saI100000
ass(S'SNode_10'
p1221
g108
tp1222
(dp1223
(t(lp1224
(dp1225
S'false'
p1226
F0.01993
sS'true'
p1227
F0.98007
saI100000
ass(S'MAXIMIZE34'
p1228
g108
tp1229
(dp1230
(t(lp1231
(dp1232
S'false'
p1233
F0.49974
sS'true'
p1234
F0.50026
saI100000
ass(S'VAR20'
p1235
g108
tp1236
(dp1237
(t(lp1238
(dp1239
S'false'
p1240
F0.29822
sS'true'
p1241
F0.70178
saI100000
ass(S'GOAL_149'
p1242
S'GOAL_147, TRY76'
p1243
tp1244
(dp1245
(S'false'
p1246
S'true'
p1247
tp1248
(lp1249
(dp1250
S'false'
p1251
F0.700254575478189
sS'true'
p1252
F0.2997454245218109
saI29068
as(S'true'
p1253
S'false'
p1254
tp1255
(lp1256
(dp1257
g1251
F0.7056502069496583
sg1252
F0.2943497930503417
saI20778
as(S'false'
p1258
S'false'
p1259
tp1260
(lp1261
(dp1262
g1251
F0.6956149366221309
sg1252
F0.30438506337786914
saI29190
as(S'true'
p1263
S'true'
p1264
tp1265
(lp1266
(dp1267
g1251
F9.540164090822362e-05
sg1252
F0.9999045983590917
saI20964
ass(S'KINEMATI17'
p1268
g108
tp1269
(dp1270
(t(lp1271
(dp1272
S'false'
p1273
F0.50009
sS'true'
p1274
F0.49991
saI100000
ass(S'SNode_156'
p1275
S'SNode_86, NEWTONS45'
p1276
tp1277
(dp1278
(S'false'
p1279
S'true'
p1280
tp1281
(lp1282
(dp1283
S'false'
p1284
F0.7972946913138103
sS'true'
p1285
F0.2027053086861897
saI36299
as(S'true'
p1286
S'false'
p1287
tp1288
(lp1289
(dp1290
g1284
F0.7956895296344838
sg1285
F0.20431047036551625
saI13734
as(S'false'
p1291
S'false'
p1292
tp1293
(lp1294
(dp1295
g1284
F0.7989232468249586
sg1285
F0.20107675317504142
saI36220
as(S'true'
p1296
S'true'
p1297
tp1298
(lp1299
(dp1300
g1284
F7.27431439586819e-05
sg1285
F0.9999272568560413
saI13747
ass(S'SNode_21'
p1301
S'SNode_20, GRAV2'
p1302
tp1303
(dp1304
(S'false'
p1305
S'true'
p1306
tp1307
(lp1308
(dp1309
S'false'
p1310
F0.7999804094426486
sS'true'
p1311
F0.20001959055735136
saI20418
as(S'true'
p1312
S'false'
p1313
tp1314
(lp1315
(dp1316
g1310
F0.7973228134061636
sg1311
F0.2026771865938364
saI29658
as(S'false'
p1317
S'false'
p1318
tp1319
(lp1320
(dp1321
g1310
F0.8030554470909801
sg1311
F0.1969445529090199
saI20488
as(S'true'
p1322
S'true'
p1323
tp1324
(lp1325
(dp1326
g1310
F0.0
sg1311
F1.0
saI29436
ass(S'CHOOSE19'
p1327
g108
tp1328
(dp1329
(t(lp1330
(dp1331
S'false'
p1332
F0.49889
sS'true'
p1333
F0.50111
saI100000
ass(S'SNode_20'
p1334
S'SNode_16, NEED1'
p1335
tp1336
(dp1337
(S'false'
p1338
S'true'
p1339
tp1340
(lp1341
(dp1342
S'false'
p1343
F0.7879088206144698
sS'true'
p1344
F0.21209117938553024
saI1009
as(S'true'
p1345
S'false'
p1346
tp1347
(lp1348
(dp1349
g1343
F0.8016498550251153
sg1344
F0.19835014497488462
saI48974
as(S'false'
p1350
S'false'
p1351
tp1352
(lp1353
(dp1354
g1343
F0.8213592233009709
sg1344
F0.1786407766990291
saI1030
as(S'true'
p1355
S'true'
p1356
tp1357
(lp1358
(dp1359
g1343
F0.00010206789556412925
sg1344
F0.9998979321044359
saI48987
ass(S'GOAL_2'
p1360
g108
tp1361
(dp1362
(t(lp1363
(dp1364
S'false'
p1365
F0.01964
sS'true'
p1366
F0.98036
saI100000
ass(S'SNode_5'
p1367
g108
tp1368
(dp1369
(t(lp1370
(dp1371
S'false'
p1372
F0.01985
sS'true'
p1373
F0.98015
saI100000
ass(S'SNode_4'
p1374
g108
tp1375
(dp1376
(t(lp1377
(dp1378
S'false'
p1379
F0.01984
sS'true'
p1380
F0.98016
saI100000
ass(S'TRY26'
p1381
S'TRY25'
p1382
tp1383
(dp1384
(S'true'
p1385
tp1386
(lp1387
(dp1388
S'false'
p1389
F0.0
sS'true'
p1390
F1.0
saI89951
as(S'false'
p1391
tp1392
(lp1393
(dp1394
g1389
F0.8985968753109762
sg1390
F0.10140312468902378
saI10049
ass(S'SNode_29'
p1395
S'SNode_28, VAR20'
p1396
tp1397
(dp1398
(S'false'
p1399
S'true'
p1400
tp1401
(lp1402
(dp1403
S'false'
p1404
F0.8008925439451222
sS'true'
p1405
F0.1991074560548778
saI51314
as(S'true'
p1406
S'false'
p1407
tp1408
(lp1409
(dp1410
g1404
F0.7978352824085594
sg1405
F0.20216471759144067
saI8038
as(S'false'
p1411
S'false'
p1412
tp1413
(lp1414
(dp1415
g1404
F0.8034337128167462
sg1405
F0.19656628718325375
saI21784
as(S'true'
p1416
S'true'
p1417
tp1418
(lp1419
(dp1420
g1404
F0.00021204410517387616
sg1405
F0.9997879558948262
saI18864
ass(S'NULL48'
p1421
g108
tp1422
(dp1423
(t(lp1424
(dp1425
S'false'
p1426
F0.4986
sS'true'
p1427
F0.5014
saI100000
ass(S'CHOOSE62'
p1428
g108
tp1429
(dp1430
(t(lp1431
(dp1432
S'false'
p1433
F0.50017
sS'true'
p1434
F0.49983
saI100000
ass(S'AXIS33'
p1435
g108
tp1436
(dp1437
(t(lp1438
(dp1439
S'false'
p1440
F0.19866
sS'true'
p1441
F0.80134
saI100000
ass(S'SNode_136'
p1442
S'SNode_37, GOAL_108, SNode_128, SNode_154, NEWTONS74'
p1443
tp1444
(dp1445
(S'false'
p1446
S'false'
p1447
S'false'
p1448
S'true'
p1449
S'false'
p1450
tp1451
(lp1452
(dp1453
S'false'
p1454
F0.9007213363705391
sS'true'
p1455
F0.09927866362946089
saI5268
as(S'true'
p1456
S'true'
p1457
S'false'
p1458
S'true'
p1459
S'true'
p1460
tp1461
(lp1462
(dp1463
g1454
F0.9201995012468828
sg1455
F0.0798004987531172
saI401
as(S'true'
p1464
S'true'
p1465
S'false'
p1466
S'false'
p1467
S'false'
p1468
tp1469
(lp1470
(dp1471
g1454
F0.8937853107344633
sg1455
F0.10621468926553672
saI885
as(S'true'
p1472
S'false'
p1473
S'true'
p1474
S'true'
p1475
S'true'
p1476
tp1477
(lp1478
(dp1479
g1454
F0.9049019607843137
sg1455
F0.09509803921568627
saI1020
as(S'true'
p1480
S'true'
p1481
S'false'
p1482
S'false'
p1483
S'true'
p1484
tp1485
(lp1486
(dp1487
g1454
F0.8975770925110133
sg1455
F0.10242290748898679
saI908
as(S'false'
p1488
S'true'
p1489
S'true'
p1490
S'true'
p1491
S'true'
p1492
tp1493
(lp1494
(dp1495
g1454
F0.8990889978976875
sg1455
F0.10091100210231255
saI2854
as(S'false'
p1496
S'true'
p1497
S'false'
p1498
S'false'
p1499
S'true'
p1500
tp1501
(lp1502
(dp1503
g1454
F0.8988439306358381
sg1455
F0.10115606936416185
saI2076
as(S'true'
p1504
S'true'
p1505
S'false'
p1506
S'true'
p1507
S'false'
p1508
tp1509
(lp1510
(dp1511
g1454
F0.9079903147699758
sg1455
F0.09200968523002422
saI413
as(S'false'
p1512
S'false'
p1513
S'true'
p1514
S'true'
p1515
S'false'
p1516
tp1517
(lp1518
(dp1519
g1454
F0.900679117147708
sg1455
F0.09932088285229201
saI2356
as(S'false'
p1520
S'true'
p1521
S'true'
p1522
S'false'
p1523
S'true'
p1524
tp1525
(lp1526
(dp1527
g1454
F0.8998223011994669
sg1455
F0.1001776988005331
saI4502
as(S'false'
p1528
S'false'
p1529
S'true'
p1530
S'false'
p1531
S'true'
p1532
tp1533
(lp1534
(dp1535
g1454
F0.9042386185243328
sg1455
F0.09576138147566719
saI4459
as(S'true'
p1536
S'true'
p1537
S'true'
p1538
S'true'
p1539
S'false'
p1540
tp1541
(lp1542
(dp1543
g1454
F0.886417791898332
sg1455
F0.11358220810166798
saI1259
as(S'false'
p1544
S'false'
p1545
S'true'
p1546
S'false'
p1547
S'false'
p1548
tp1549
(lp1550
(dp1551
g1454
F0.9027219991075413
sg1455
F0.09727800089245872
saI4482
as(S'true'
p1552
S'false'
p1553
S'true'
p1554
S'false'
p1555
S'false'
p1556
tp1557
(lp1558
(dp1559
g1454
F0.9020010261672653
sg1455
F0.09799897383273473
saI1949
as(S'true'
p1560
S'true'
p1561
S'true'
p1562
S'true'
p1563
S'true'
p1564
tp1565
(lp1566
(dp1567
g1454
F0.0
sg1455
F1.0
saI1245
as(S'false'
p1568
S'true'
p1569
S'false'
p1570
S'true'
p1571
S'false'
p1572
tp1573
(lp1574
(dp1575
g1454
F0.8928571428571429
sg1455
F0.10714285714285714
saI952
as(S'true'
p1576
S'false'
p1577
S'false'
p1578
S'true'
p1579
S'true'
p1580
tp1581
(lp1582
(dp1583
g1454
F0.8975799481417459
sg1455
F0.1024200518582541
saI2314
as(S'true'
p1584
S'false'
p1585
S'true'
p1586
S'true'
p1587
S'false'
p1588
tp1589
(lp1590
(dp1591
g1454
F0.9053254437869822
sg1455
F0.09467455621301775
saI1014
as(S'false'
p1592
S'false'
p1593
S'false'
p1594
S'false'
p1595
S'false'
p1596
tp1597
(lp1598
(dp1599
g1454
F0.8919506889050036
sg1455
F0.10804931109499638
saI12411
as(S'false'
p1600
S'true'
p1601
S'false'
p1602
S'true'
p1603
S'true'
p1604
tp1605
(lp1606
(dp1607
g1454
F0.8933189655172413
sg1455
F0.10668103448275862
saI928
as(S'false'
p1608
S'true'
p1609
S'true'
p1610
S'false'
p1611
S'false'
p1612
tp1613
(lp1614
(dp1615
g1454
F0.8957700397289087
sg1455
F0.10422996027109138
saI4279
as(S'false'
p1616
S'false'
p1617
S'false'
p1618
S'false'
p1619
S'true'
p1620
tp1621
(lp1622
(dp1623
g1454
F0.897707088648474
sg1455
F0.10229291135152592
saI12386
as(S'false'
p1624
S'false'
p1625
S'true'
p1626
S'true'
p1627
S'true'
p1628
tp1629
(lp1630
(dp1631
g1454
F0.8962425277540563
sg1455
F0.10375747224594364
saI2342
as(S'true'
p1632
S'false'
p1633
S'false'
p1634
S'false'
p1635
S'true'
p1636
tp1637
(lp1638
(dp1639
g1454
F0.8916380711576666
sg1455
F0.1083619288423334
saI5537
as(S'false'
p1640
S'true'
p1641
S'false'
p1642
S'false'
p1643
S'false'
p1644
tp1645
(lp1646
(dp1647
g1454
F0.8972332015810277
sg1455
F0.10276679841897234
saI2024
as(S'true'
p1648
S'false'
p1649
S'true'
p1650
S'false'
p1651
S'true'
p1652
tp1653
(lp1654
(dp1655
g1454
F0.9010763710917479
sg1455
F0.09892362890825218
saI1951
as(S'true'
p1656
S'true'
p1657
S'true'
p1658
S'false'
p1659
S'true'
p1660
tp1661
(lp1662
(dp1663
g1454
F0.8956298200514139
sg1455
F0.10437017994858612
saI1945
as(S'false'
p1664
S'false'
p1665
S'false'
p1666
S'true'
p1667
S'true'
p1668
tp1669
(lp1670
(dp1671
g1454
F0.8995502248875562
sg1455
F0.10044977511244378
saI5336
as(S'true'
p1672
S'true'
p1673
S'true'
p1674
S'false'
p1675
S'false'
p1676
tp1677
(lp1678
(dp1679
g1454
F0.8951014349332014
sg1455
F0.10489856506679862
saI2021
as(S'true'
p1680
S'false'
p1681
S'false'
p1682
S'true'
p1683
S'false'
p1684
tp1685
(lp1686
(dp1687
g1454
F0.894387980556783
sg1455
F0.10561201944321696
saI2263
as(S'true'
p1688
S'false'
p1689
S'false'
p1690
S'false'
p1691
S'false'
p1692
tp1693
(lp1694
(dp1695
g1454
F0.901949860724234
sg1455
F0.09805013927576602
saI5385
as(S'false'
p1696
S'true'
p1697
S'true'
p1698
S'true'
p1699
S'false'
p1700
tp1701
(lp1702
(dp1703
g1454
F0.9044091710758377
sg1455
F0.09559082892416226
saI2835
ass(S'SNode_26'
p1704
S'SNode_11, CONSTANT5'
p1705
tp1706
(dp1707
(S'false'
p1708
S'true'
p1709
tp1710
(lp1711
(dp1712
S'false'
p1713
F0.7878787878787878
sS'true'
p1714
F0.21212121212121213
saI1023
as(S'true'
p1715
S'false'
p1716
tp1717
(lp1718
(dp1719
g1713
F0.8021812943718489
sg1714
F0.19781870562815104
saI48595
as(S'false'
p1720
S'false'
p1721
tp1722
(lp1723
(dp1724
g1713
F0.7921951219512195
sg1714
F0.20780487804878048
saI1025
as(S'true'
p1725
S'true'
p1726
tp1727
(lp1728
(dp1729
g1713
F6.078165204530259e-05
sg1714
F0.9999392183479547
saI49357
ass(S'SNode_12'
p1730
g108
tp1731
(dp1732
(t(lp1733
(dp1734
S'false'
p1735
F0.02034
sS'true'
p1736
F0.97966
saI100000
ass(S'TRY76'
p1737
g108
tp1738
(dp1739
(t(lp1740
(dp1741
S'false'
p1742
F0.49968
sS'true'
p1743
F0.50032
saI100000
ass(S'SNode_152'
p1744
S'SNode_106, AXIS33'
p1745
tp1746
(dp1747
(S'false'
p1748
S'true'
p1749
tp1750
(lp1751
(dp1752
S'false'
p1753
F0.8023568100849547
sS'true'
p1754
F0.19764318991504523
saI54735
as(S'true'
p1755
S'false'
p1756
tp1757
(lp1758
(dp1759
g1753
F0.7907668231611894
sg1754
F0.20923317683881065
saI6390
as(S'false'
p1760
S'false'
p1761
tp1762
(lp1763
(dp1764
g1753
F0.8015731671119026
sg1754
F0.19842683288809737
saI13476
as(S'true'
p1765
S'true'
p1766
tp1767
(lp1768
(dp1769
g1753
F3.937162880428363e-05
sg1754
F0.9999606283711957
saI25399
ass(S'GOAL_53'
p1770
S'GOAL_49, SNode_52, IDENTIFY10'
p1771
tp1772
(dp1773
(S'false'
p1774
S'false'
p1775
S'true'
p1776
tp1777
(lp1778
(dp1779
S'false'
p1780
F0.7993652545881055
sS'true'
p1781
F0.20063474541189458
saI21741
as(S'true'
p1782
S'true'
p1783
S'true'
p1784
tp1785
(lp1786
(dp1787
g1780
F0.0
sg1781
F1.0
saI6959
as(S'false'
p1788
S'true'
p1789
S'false'
p1790
tp1791
(lp1792
(dp1793
g1780
F0.8060591312811778
sg1781
F0.19394086871882224
saI8219
as(S'true'
p1794
S'true'
p1795
S'false'
p1796
tp1797
(lp1798
(dp1799
g1780
F0.7986817595644075
sg1781
F0.2013182404355925
saI6979
as(S'true'
p1800
S'false'
p1801
S'false'
p1802
tp1803
(lp1804
(dp1805
g1780
F0.8011536126290225
sg1781
F0.19884638737097754
saI13176
as(S'false'
p1806
S'false'
p1807
S'false'
p1808
tp1809
(lp1810
(dp1811
g1780
F0.7999076212471131
sg1781
F0.20009237875288682
saI21650
as(S'false'
p1812
S'true'
p1813
S'true'
p1814
tp1815
(lp1816
(dp1817
g1780
F0.8005303121610221
sg1781
F0.19946968783897795
saI8297
as(S'true'
p1818
S'false'
p1819
S'true'
p1820
tp1821
(lp1822
(dp1823
g1780
F0.7982895446490484
sg1781
F0.20171045535095153
saI12979
ass(S'GOAL_80'
p1824
S'SNode_75, EQUATION28'
p1825
tp1826
(dp1827
(S'false'
p1828
S'true'
p1829
tp1830
(lp1831
(dp1832
S'false'
p1833
F0.8037806176783813
sS'true'
p1834
F0.19621938232161876
saI33804
as(S'true'
p1835
S'false'
p1836
tp1837
(lp1838
(dp1839
g1833
F0.8007291666666667
sg1834
F0.19927083333333334
saI9600
as(S'false'
p1840
S'false'
p1841
tp1842
(lp1843
(dp1844
g1833
F0.7986234413965088
sg1834
F0.20137655860349127
saI50125
as(S'true'
p1845
S'true'
p1846
tp1847
(lp1848
(dp1849
g1833
F0.0
sg1834
F1.0
saI6471
ass(S'GOAL_129'
p1850
S'GOAL_126, GOAL68'
p1851
tp1852
(dp1853
(S'false'
p1854
S'true'
p1855
tp1856
(lp1857
(dp1858
S'false'
p1859
F0.8016004655899898
sS'true'
p1860
F0.19839953441001018
saI34365
as(S'true'
p1861
S'false'
p1862
tp1863
(lp1864
(dp1865
g1859
F0.7981335337592383
sg1860
F0.20186646624076163
saI15966
as(S'false'
p1866
S'false'
p1867
tp1868
(lp1869
(dp1870
g1859
F0.8008807708222498
sg1860
F0.19911922917775018
saI33834
as(S'true'
p1871
S'true'
p1872
tp1873
(lp1874
(dp1875
g1859
F6.315124723713294e-05
sg1860
F0.9999368487527629
saI15835
ass(S'SNode_73'
p1876
S'GOAL_72, NEED36'
p1877
tp1878
(dp1879
(S'false'
p1880
S'true'
p1881
tp1882
(lp1883
(dp1884
S'false'
p1885
F0.799187690385066
sS'true'
p1886
F0.200812309614934
saI38409
as(S'true'
p1887
S'false'
p1888
tp1889
(lp1890
(dp1891
g1885
F0.7983496647756576
sg1886
F0.20165033522434245
saI11634
as(S'false'
p1892
S'false'
p1893
tp1894
(lp1895
(dp1896
g1885
F0.7996679292274166
sg1886
F0.20033207077258341
saI38546
as(S'true'
p1897
S'true'
p1898
tp1899
(lp1900
(dp1901
g1885
F0.0002629042152309175
sg1886
F0.9997370957847691
saI11411
ass(S'SNode_28'
p1902
S'SNode_27, GOAL_53, IDENTIFY9'
p1903
tp1904
(dp1905
(S'false'
p1906
S'false'
p1907
S'true'
p1908
tp1909
(lp1910
(dp1911
S'false'
p1912
F0.7973578863090472
sS'true'
p1913
F0.20264211369095275
saI12490
as(S'true'
p1914
S'true'
p1915
S'true'
p1916
tp1917
(lp1918
(dp1919
g1912
F0.000117813383600377
sg1913
F0.9998821866163996
saI8488
as(S'false'
p1920
S'true'
p1921
S'false'
p1922
tp1923
(lp1924
(dp1925
g1912
F0.794771841320798
sg1913
F0.20522815867920202
saI4361
as(S'true'
p1926
S'true'
p1927
S'false'
p1928
tp1929
(lp1930
(dp1931
g1912
F0.796923076923077
sg1913
F0.20307692307692307
saI8450
as(S'true'
p1932
S'false'
p1933
S'false'
p1934
tp1935
(lp1936
(dp1937
g1912
F0.7986409874954766
sg1913
F0.20135901250452334
saI24871
as(S'false'
p1938
S'false'
p1939
S'false'
p1940
tp1941
(lp1942
(dp1943
g1912
F0.7973266768660923
sg1913
F0.20267332313390773
saI12419
as(S'false'
p1944
S'true'
p1945
S'true'
p1946
tp1947
(lp1948
(dp1949
g1912
F0.811822892133773
sg1913
F0.18817710786622704
saI4246
as(S'true'
p1950
S'false'
p1951
S'true'
p1952
tp1953
(lp1954
(dp1955
g1912
F0.7994326241134752
sg1913
F0.20056737588652482
saI24675
ass(S'CHOOSE47'
p1956
g108
tp1957
(dp1958
(t(lp1959
(dp1960
S'false'
p1961
F0.50245
sS'true'
p1962
F0.49755
saI100000
ass(S'WRITE31'
p1963
g108
tp1964
(dp1965
(t(lp1966
(dp1967
S'false'
p1968
F0.50073
sS'true'
p1969
F0.49927
saI100000
ass(S'GOAL_111'
p1970
S'GOAL_109, GOAL66'
p1971
tp1972
(dp1973
(S'false'
p1974
S'true'
p1975
tp1976
(lp1977
(dp1978
S'false'
p1979
F0.799201511424803
sS'true'
p1980
F0.20079848857519694
saI28053
as(S'true'
p1981
S'false'
p1982
tp1983
(lp1984
(dp1985
g1979
F0.8021928591509699
sg1980
F0.1978071408490301
saI17785
as(S'false'
p1986
S'false'
p1987
tp1988
(lp1989
(dp1990
g1979
F0.801102488880477
sg1980
F0.19889751111952306
saI42268
as(S'true'
p1991
S'true'
p1992
tp1993
(lp1994
(dp1995
g1979
F0.00016815200941651252
sg1980
F0.9998318479905834
saI11894
ass(S'RApp9'
p1996
S'NEED67, GOAL_108'
p1997
tp1998
(dp1999
(S'false'
p2000
S'true'
p2001
tp2002
(lp2003
(dp2004
S'false'
p2005
F1.0
sS'true'
p2006
F0.0
saI14406
as(S'true'
p2007
S'false'
p2008
tp2009
(lp2010
(dp2011
g2005
F1.0
sg2006
F0.0
saI35304
as(S'false'
p2012
S'false'
p2013
tp2014
(lp2015
(dp2016
g2005
F1.0
sg2006
F0.0
saI35169
as(S'true'
p2017
S'true'
p2018
tp2019
(lp2020
(dp2021
g2005
F6.613319224918987e-05
sg2006
F0.9999338668077508
saI15121
ass(S'SNode_31'
p2022
S'SNode_29, VALUE3'
p2023
tp2024
(dp2025
(S'false'
p2026
S'true'
p2027
tp2028
(lp2029
(dp2030
S'false'
p2031
F0.8975929442028542
sS'true'
p2032
F0.10240705579714583
saI32654
as(S'true'
p2033
S'false'
p2034
tp2035
(lp2036
(dp2037
g2031
F0.8982005141388175
sg2032
F0.10179948586118252
saI17505
as(S'false'
p2038
S'false'
p2039
tp2040
(lp2041
(dp2042
g2031
F0.9004387862307645
sg2032
F0.09956121376923552
saI32362
as(S'true'
p2043
S'true'
p2044
tp2045
(lp2046
(dp2047
g2031
F0.0
sg2032
F1.0
saI17479
ass(S'SNode_137'
p2048
S'GOAL_108, SNode_128, SUM75'
p2049
tp2050
(dp2051
(S'false'
p2052
S'false'
p2053
S'true'
p2054
tp2055
(lp2056
(dp2057
S'false'
p2058
F0.8978266893630498
sS'true'
p2059
F0.10217331063695025
saI25261
as(S'true'
p2060
S'true'
p2061
S'true'
p2062
tp2063
(lp2064
(dp2065
g2058
F0.0
sg2059
F1.0
saI10619
as(S'false'
p2066
S'true'
p2067
S'false'
p2068
tp2069
(lp2070
(dp2071
g2058
F0.8981189628876461
sg2059
F0.10188103711235384
saI9835
as(S'true'
p2072
S'true'
p2073
S'false'
p2074
tp2075
(lp2076
(dp2077
g2058
F0.8999127991473694
sg2059
F0.10008720085263056
saI10321
as(S'true'
p2078
S'false'
p2079
S'false'
p2080
tp2081
(lp2082
(dp2083
g2058
F0.9037470725995316
sg2059
F0.09625292740046838
saI4270
as(S'false'
p2084
S'false'
p2085
S'false'
p2086
tp2087
(lp2088
(dp2089
g2058
F0.8973828932485667
sg2059
F0.10261710675143336
saI25639
as(S'false'
p2090
S'true'
p2091
S'true'
p2092
tp2093
(lp2094
(dp2095
g2058
F0.9028547956459232
sg2059
F0.09714520435407681
saI9738
as(S'true'
p2096
S'false'
p2097
S'true'
p2098
tp2099
(lp2100
(dp2101
g2058
F0.902246930738939
sg2059
F0.09775306926106092
saI4317
ass(S'BUGGY54'
p2102
S'NORMAL52'
p2103
tp2104
(dp2105
(S'true'
p2106
tp2107
(lp2108
(dp2109
S'false'
p2110
F1.0
sS'true'
p2111
F0.0
saI35217
as(S'false'
p2112
tp2113
(lp2114
(dp2115
g2110
F0.20054643965237795
sg2111
F0.799453560347622
saI64783
ass(S'SNode_14'
p2116
g108
tp2117
(dp2118
(t(lp2119
(dp2120
S'false'
p2121
F0.02051
sS'true'
p2122
F0.97949
saI100000
ass(S'SNode_132'
p2123
S'SNode_95, SNode_97, GOAL_130, SNode_131, VECTOR69'
p2124
tp2125
(dp2126
(S'false'
p2127
S'false'
p2128
S'false'
p2129
S'true'
p2130
S'false'
p2131
tp2132
(lp2133
(dp2134
S'false'
p2135
F0.9028707101230304
sS'true'
p2136
F0.09712928987696956
saI4633
as(S'true'
p2137
S'true'
p2138
S'false'
p2139
S'true'
p2140
S'true'
p2141
tp2142
(lp2143
(dp2144
g2135
F0.9144215530903328
sg2136
F0.08557844690966719
saI631
as(S'true'
p2145
S'true'
p2146
S'false'
p2147
S'false'
p2148
S'false'
p2149
tp2150
(lp2151
(dp2152
g2135
F0.9025121859767529
sg2136
F0.09748781402324709
saI5334
as(S'true'
p2153
S'false'
p2154
S'true'
p2155
S'true'
p2156
S'true'
p2157
tp2158
(lp2159
(dp2160
g2135
F0.9058913542463657
sg2136
F0.09410864575363427
saI1307
as(S'true'
p2161
S'true'
p2162
S'false'
p2163
S'false'
p2164
S'true'
p2165
tp2166
(lp2167
(dp2168
g2135
F0.9046591889559965
sg2136
F0.09534081104400345
saI2318
as(S'false'
p2169
S'true'
p2170
S'true'
p2171
S'true'
p2172
S'true'
p2173
tp2174
(lp2175
(dp2176
g2135
F0.8741092636579573
sg2136
F0.12589073634204276
saI842
as(S'false'
p2177
S'true'
p2178
S'false'
p2179
S'false'
p2180
S'true'
p2181
tp2182
(lp2183
(dp2184
g2135
F0.9005193767479025
sg2136
F0.09948062325209749
saI2503
as(S'true'
p2185
S'true'
p2186
S'false'
p2187
S'true'
p2188
S'false'
p2189
tp2190
(lp2191
(dp2192
g2135
F0.9046909903201787
sg2136
F0.0953090096798213
saI1343
as(S'false'
p2193
S'false'
p2194
S'true'
p2195
S'true'
p2196
S'false'
p2197
tp2198
(lp2199
(dp2200
g2135
F0.9049917056250942
sg2136
F0.09500829437490575
saI6631
as(S'false'
p2201
S'true'
p2202
S'true'
p2203
S'false'
p2204
S'true'
p2205
tp2206
(lp2207
(dp2208
g2135
F0.9058084772370487
sg2136
F0.09419152276295134
saI637
as(S'false'
p2209
S'false'
p2210
S'true'
p2211
S'false'
p2212
S'true'
p2213
tp2214
(lp2215
(dp2216
g2135
F0.9094147582697201
sg2136
F0.0905852417302799
saI1965
as(S'true'
p2217
S'true'
p2218
S'true'
p2219
S'true'
p2220
S'false'
p2221
tp2222
(lp2223
(dp2224
g2135
F0.9057750759878419
sg2136
F0.09422492401215805
saI1974
as(S'false'
p2225
S'false'
p2226
S'true'
p2227
S'false'
p2228
S'false'
p2229
tp2230
(lp2231
(dp2232
g2135
F0.8949832775919733
sg2136
F0.10501672240802676
saI4485
as(S'true'
p2233
S'false'
p2234
S'true'
p2235
S'false'
p2236
S'false'
p2237
tp2238
(lp2239
(dp2240
g2135
F0.8978622327790974
sg2136
F0.1021377672209026
saI2105
as(S'true'
p2241
S'true'
p2242
S'true'
p2243
S'true'
p2244
S'true'
p2245
tp2246
(lp2247
(dp2248
g2135
F0.0
sg2136
F1.0
saI889
as(S'false'
p2249
S'true'
p2250
S'false'
p2251
S'true'
p2252
S'false'
p2253
tp2254
(lp2255
(dp2256
g2135
F0.8921713441654358
sg2136
F0.10782865583456426
saI1354
as(S'true'
p2257
S'false'
p2258
S'false'
p2259
S'true'
p2260
S'true'
p2261
tp2262
(lp2263
(dp2264
g2135
F0.8927738927738927
sg2136
F0.10722610722610723
saI858
as(S'true'
p2265
S'false'
p2266
S'true'
p2267
S'true'
p2268
S'false'
p2269
tp2270
(lp2271
(dp2272
g2135
F0.9023007669223074
sg2136
F0.09769923307769257
saI2999
as(S'false'
p2273
S'false'
p2274
S'false'
p2275
S'false'
p2276
S'false'
p2277
tp2278
(lp2279
(dp2280
g2135
F0.9027256954161303
sg2136
F0.09727430458386971
saI17867
as(S'false'
p2281
S'true'
p2282
S'false'
p2283
S'true'
p2284
S'true'
p2285
tp2286
(lp2287
(dp2288
g2135
F0.9098101265822784
sg2136
F0.09018987341772151
saI632
as(S'false'
p2289
S'true'
p2290
S'true'
p2291
S'false'
p2292
S'false'
p2293
tp2294
(lp2295
(dp2296
g2135
F0.8934306569343066
sg2136
F0.10656934306569343
saI1370
as(S'false'
p2297
S'false'
p2298
S'false'
p2299
S'false'
p2300
S'true'
p2301
tp2302
(lp2303
(dp2304
g2135
F0.9025516091806642
sg2136
F0.09744839081933582
saI7799
as(S'false'
p2305
S'false'
p2306
S'true'
p2307
S'true'
p2308
S'true'
p2309
tp2310
(lp2311
(dp2312
g2135
F0.8965153115100317
sg2136
F0.10348468848996832
saI2841
as(S'true'
p2313
S'false'
p2314
S'false'
p2315
S'false'
p2316
S'true'
p2317
tp2318
(lp2319
(dp2320
g2135
F0.9043971631205674
sg2136
F0.09560283687943262
saI3525
as(S'false'
p2321
S'true'
p2322
S'false'
p2323
S'false'
p2324
S'false'
p2325
tp2326
(lp2327
(dp2328
g2135
F0.9010778859527121
sg2136
F0.0989221140472879
saI5752
as(S'true'
p2329
S'false'
p2330
S'true'
p2331
S'false'
p2332
S'true'
p2333
tp2334
(lp2335
(dp2336
g2135
F0.9025191675794085
sg2136
F0.09748083242059145
saI913
as(S'true'
p2337
S'true'
p2338
S'true'
p2339
S'false'
p2340
S'true'
p2341
tp2342
(lp2343
(dp2344
g2135
F0.8912655971479501
sg2136
F0.10873440285204991
saI561
as(S'false'
p2345
S'false'
p2346
S'false'
p2347
S'true'
p2348
S'true'
p2349
tp2350
(lp2351
(dp2352
g2135
F0.8927300457549567
sg2136
F0.10726995424504321
saI1967
as(S'true'
p2353
S'true'
p2354
S'true'
p2355
S'false'
p2356
S'false'
p2357
tp2358
(lp2359
(dp2360
g2135
F0.897138437741686
sg2136
F0.102861562258314
saI1293
as(S'true'
p2361
S'false'
p2362
S'false'
p2363
S'true'
p2364
S'false'
p2365
tp2366
(lp2367
(dp2368
g2135
F0.9037138927097662
sg2136
F0.09628610729023383
saI2181
as(S'true'
p2369
S'false'
p2370
S'false'
p2371
S'false'
p2372
S'false'
p2373
tp2374
(lp2375
(dp2376
g2135
F0.8984681154257214
sg2136
F0.10153188457427859
saI8421
as(S'false'
p2377
S'true'
p2378
S'true'
p2379
S'true'
p2380
S'false'
p2381
tp2382
(lp2383
(dp2384
g2135
F0.9019323671497584
sg2136
F0.09806763285024155
saI2070
ass(S'SNode_54'
p2385
S'GOAL_53, IDENTIFY41'
p2386
tp2387
(dp2388
(S'false'
p2389
S'true'
p2390
tp2391
(lp2392
(dp2393
S'false'
p2394
F0.7982640008599377
sS'true'
p2395
F0.20173599914006235
saI37212
as(S'true'
p2396
S'false'
p2397
tp2398
(lp2399
(dp2400
g2394
F0.7981701595245543
sg2395
F0.20182984047544572
saI12788
as(S'false'
p2401
S'false'
p2402
tp2403
(lp2404
(dp2405
g2394
F0.8008216309105066
sg2395
F0.19917836908949332
saI37243
as(S'true'
p2406
S'true'
p2407
tp2408
(lp2409
(dp2410
g2394
F0.0
sg2395
F1.0
saI12757
ass(S'RApp13'
p2411
S'VECTOR27, GOAL_146'
p2412
tp2413
(dp2414
(S'false'
p2415
S'true'
p2416
tp2417
(lp2418
(dp2419
S'false'
p2420
F1.0
sS'true'
p2421
F0.0
saI10087
as(S'true'
p2422
S'false'
p2423
tp2424
(lp2425
(dp2426
g2420
F1.0
sg2421
F0.0
saI39745
as(S'false'
p2427
S'false'
p2428
tp2429
(lp2430
(dp2431
g2420
F1.0
sg2421
F0.0
saI39722
as(S'true'
p2432
S'true'
p2433
tp2434
(lp2435
(dp2436
g2420
F0.00019146084625694046
sg2421
F0.999808539153743
saI10446
ass(S'COMPO16'
p2437
g108
tp2438
(dp2439
(t(lp2440
(dp2441
S'false'
p2442
F0.50127
sS'true'
p2443
F0.49873
saI100000
ass(S'GOAL_142'
p2444
S'SNode_116, SNode_125, EQUATION28'
p2445
tp2446
(dp2447
(S'false'
p2448
S'false'
p2449
S'true'
p2450
tp2451
(lp2452
(dp2453
S'false'
p2454
F0.7954373668659382
sS'true'
p2455
F0.2045626331340617
saI29106
as(S'true'
p2456
S'true'
p2457
S'true'
p2458
tp2459
(lp2460
(dp2461
g2454
F0.0
sg2455
F1.0
saI859
as(S'false'
p2462
S'true'
p2463
S'false'
p2464
tp2465
(lp2466
(dp2467
g2454
F0.8020763882274502
sg2455
F0.19792361177254977
saI10499
as(S'true'
p2468
S'true'
p2469
S'false'
p2470
tp2471
(lp2472
(dp2473
g2454
F0.7876923076923077
sg2455
F0.2123076923076923
saI1300
as(S'true'
p2474
S'false'
p2475
S'false'
p2476
tp2477
(lp2478
(dp2479
g2454
F0.7898187427689934
sg2455
F0.21018125723100656
saI5186
as(S'false'
p2480
S'false'
p2481
S'false'
p2482
tp2483
(lp2484
(dp2485
g2454
F0.7981750116986429
sg2455
F0.20182498830135703
saI42740
as(S'false'
p2486
S'true'
p2487
S'true'
p2488
tp2489
(lp2490
(dp2491
g2454
F0.7968185104844541
sg2455
F0.2031814895155459
saI6915
as(S'true'
p2492
S'false'
p2493
S'true'
p2494
tp2495
(lp2496
(dp2497
g2454
F0.8023564064801179
sg2455
F0.19764359351988217
saI3395
ass(S'SNode_122'
p2498
S'GOAL_121, NEED36'
p2499
tp2500
(dp2501
(S'false'
p2502
S'true'
p2503
tp2504
(lp2505
(dp2506
S'false'
p2507
F0.7946159749690065
sS'true'
p2508
F0.20538402503099357
saI33878
as(S'true'
p2509
S'false'
p2510
tp2511
(lp2512
(dp2513
g2507
F0.7947335423197492
sg2508
F0.20526645768025079
saI15950
as(S'false'
p2514
S'false'
p2515
tp2516
(lp2517
(dp2518
g2507
F0.8070406076541046
sg2508
F0.1929593923458954
saI34230
as(S'true'
p2519
S'true'
p2520
tp2521
(lp2522
(dp2523
g2507
F6.272738677706687e-05
sg2508
F0.999937272613223
saI15942
ass(S'RApp3'
p2524
S'KNOWN6, SNode_26, SNode_47'
p2525
tp2526
(dp2527
(S'false'
p2528
S'false'
p2529
S'true'
p2530
tp2531
(lp2532
(dp2533
S'false'
p2534
F1.0
sS'true'
p2535
F0.0
saI11908
as(S'true'
p2536
S'true'
p2537
S'true'
p2538
tp2539
(lp2540
(dp2541
g2534
F0.00011431837667905116
sg2535
F0.9998856816233209
saI17495
as(S'false'
p2542
S'true'
p2543
S'false'
p2544
tp2545
(lp2546
(dp2547
g2534
F1.0
sg2535
F0.0
saI12269
as(S'true'
p2548
S'true'
p2549
S'false'
p2550
tp2551
(lp2552
(dp2553
g2534
F1.0
sg2535
F0.0
saI12073
as(S'true'
p2554
S'false'
p2555
S'false'
p2556
tp2557
(lp2558
(dp2559
g2534
F1.0
sg2535
F0.0
saI8378
as(S'false'
p2560
S'false'
p2561
S'false'
p2562
tp2563
(lp2564
(dp2565
g2534
F1.0
sg2535
F0.0
saI8332
as(S'false'
p2566
S'true'
p2567
S'true'
p2568
tp2569
(lp2570
(dp2571
g2534
F1.0
sg2535
F0.0
saI17560
as(S'true'
p2572
S'false'
p2573
S'true'
p2574
tp2575
(lp2576
(dp2577
g2534
F1.0
sg2535
F0.0
saI11985
ass(S'CONSTANT5'
p2578
g108
tp2579
(dp2580
(t(lp2581
(dp2582
S'false'
p2583
F0.4962
sS'true'
p2584
F0.5038
saI100000
ass(S'SNode_44'
p2585
S'SNode_43, VAR20'
p2586
tp2587
(dp2588
(S'false'
p2589
S'true'
p2590
tp2591
(lp2592
(dp2593
S'false'
p2594
F0.7995662832359042
sS'true'
p2595
F0.2004337167640958
saI53030
as(S'true'
p2596
S'false'
p2597
tp2598
(lp2599
(dp2600
g2594
F0.8044306476647383
sg2595
F0.19556935233526174
saI7087
as(S'false'
p2601
S'false'
p2602
tp2603
(lp2604
(dp2605
g2594
F0.800263910270508
sg2595
F0.19973608972949197
saI22735
as(S'true'
p2606
S'true'
p2607
tp2608
(lp2609
(dp2610
g2594
F5.831583858175881e-05
sg2595
F0.9999416841614183
saI17148
ass(S'SNode_120'
p2611
S'SNode_92, SNode_93, GOAL_113, SNode_117, VECTOR69'
p2612
tp2613
(dp2614
(S'false'
p2615
S'false'
p2616
S'false'
p2617
S'true'
p2618
S'false'
p2619
tp2620
(lp2621
(dp2622
S'false'
p2623
F0.9065351418002466
sS'true'
p2624
F0.09346485819975339
saI4055
as(S'true'
p2625
S'true'
p2626
S'false'
p2627
S'true'
p2628
S'true'
p2629
tp2630
(lp2631
(dp2632
g2623
F0.915929203539823
sg2624
F0.084070796460177
saI452
as(S'true'
p2633
S'true'
p2634
S'false'
p2635
S'false'
p2636
S'false'
p2637
tp2638
(lp2639
(dp2640
g2623
F0.8938223938223938
sg2624
F0.10617760617760617
saI4144
as(S'true'
p2641
S'false'
p2642
S'true'
p2643
S'true'
p2644
S'true'
p2645
tp2646
(lp2647
(dp2648
g2623
F0.9042123485285631
sg2624
F0.09578765147143682
saI1733
as(S'true'
p2649
S'true'
p2650
S'false'
p2651
S'false'
p2652
S'true'
p2653
tp2654
(lp2655
(dp2656
g2623
F0.8983050847457628
sg2624
F0.1016949152542373
saI1770
as(S'false'
p2657
S'true'
p2658
S'true'
p2659
S'true'
p2660
S'true'
p2661
tp2662
(lp2663
(dp2664
g2623
F0.9096267190569745
sg2624
F0.09037328094302555
saI1018
as(S'false'
p2665
S'true'
p2666
S'false'
p2667
S'false'
p2668
S'true'
p2669
tp2670
(lp2671
(dp2672
g2623
F0.8983240223463688
sg2624
F0.10167597765363129
saI2685
as(S'true'
p2673
S'true'
p2674
S'false'
p2675
S'true'
p2676
S'false'
p2677
tp2678
(lp2679
(dp2680
g2623
F0.9009345794392524
sg2624
F0.09906542056074766
saI1070
as(S'false'
p2681
S'false'
p2682
S'true'
p2683
S'true'
p2684
S'false'
p2685
tp2686
(lp2687
(dp2688
g2623
F0.8998655913978495
sg2624
F0.10013440860215053
saI5952
as(S'false'
p2689
S'true'
p2690
S'true'
p2691
S'false'
p2692
S'true'
p2693
tp2694
(lp2695
(dp2696
g2623
F0.8981937602627258
sg2624
F0.10180623973727422
saI609
as(S'false'
p2697
S'false'
p2698
S'true'
p2699
S'false'
p2700
S'true'
p2701
tp2702
(lp2703
(dp2704
g2623
F0.9024532710280374
sg2624
F0.09754672897196262
saI1712
as(S'true'
p2705
S'true'
p2706
S'true'
p2707
S'true'
p2708
S'false'
p2709
tp2710
(lp2711
(dp2712
g2623
F0.8942931258106356
sg2624
F0.10570687418936446
saI1542
as(S'false'
p2713
S'false'
p2714
S'true'
p2715
S'false'
p2716
S'false'
p2717
tp2718
(lp2719
(dp2720
g2623
F0.901458019105078
sg2624
F0.09854198089492207
saI3978
as(S'true'
p2721
S'false'
p2722
S'true'
p2723
S'false'
p2724
S'false'
p2725
tp2726
(lp2727
(dp2728
g2623
F0.8975993998499625
sg2624
F0.1024006001500375
saI2666
as(S'true'
p2729
S'true'
p2730
S'true'
p2731
S'true'
p2732
S'true'
p2733
tp2734
(lp2735
(dp2736
g2623
F0.0
sg2624
F1.0
saI646
as(S'false'
p2737
S'true'
p2738
S'false'
p2739
S'true'
p2740
S'false'
p2741
tp2742
(lp2743
(dp2744
g2623
F0.8943248532289628
sg2624
F0.10567514677103718
saI1533
as(S'true'
p2745
S'false'
p2746
S'false'
p2747
S'true'
p2748
S'true'
p2749
tp2750
(lp2751
(dp2752
g2623
F0.8952071486596264
sg2624
F0.10479285134037368
saI1231
as(S'true'
p2753
S'false'
p2754
S'true'
p2755
S'true'
p2756
S'false'
p2757
tp2758
(lp2759
(dp2760
g2623
F0.9049410584399298
sg2624
F0.09505894156007023
saI3987
as(S'false'
p2761
S'false'
p2762
S'false'
p2763
S'false'
p2764
S'false'
p2765
tp2766
(lp2767
(dp2768
g2623
F0.9014280527653394
sg2624
F0.09857194723466053
saI16526
as(S'false'
p2769
S'true'
p2770
S'false'
p2771
S'true'
p2772
S'true'
p2773
tp2774
(lp2775
(dp2776
g2623
F0.897239263803681
sg2624
F0.10276073619631902
saI652
as(S'false'
p2777
S'true'
p2778
S'true'
p2779
S'false'
p2780
S'false'
p2781
tp2782
(lp2783
(dp2784
g2623
F0.8889684813753582
sg2624
F0.11103151862464183
saI1396
as(S'false'
p2785
S'false'
p2786
S'false'
p2787
S'false'
p2788
S'true'
p2789
tp2790
(lp2791
(dp2792
g2623
F0.8987900355871886
sg2624
F0.10120996441281138
saI7025
as(S'false'
p2793
S'false'
p2794
S'true'
p2795
S'true'
p2796
S'true'
p2797
tp2798
(lp2799
(dp2800
g2623
F0.8906552927491276
sg2624
F0.10934470725087243
saI2579
as(S'true'
p2801
S'false'
p2802
S'false'
p2803
S'false'
p2804
S'true'
p2805
tp2806
(lp2807
(dp2808
g2623
F0.8977994075327973
sg2624
F0.10220059246720271
saI4726
as(S'false'
p2809
S'true'
p2810
S'false'
p2811
S'false'
p2812
S'false'
p2813
tp2814
(lp2815
(dp2816
g2623
F0.8960758230794812
sg2624
F0.1039241769205188
saI6014
as(S'true'
p2817
S'false'
p2818
S'true'
p2819
S'false'
p2820
S'true'
p2821
tp2822
(lp2823
(dp2824
g2623
F0.9070160608622148
sg2624
F0.09298393913778528
saI1183
as(S'true'
p2825
S'true'
p2826
S'true'
p2827
S'false'
p2828
S'true'
p2829
tp2830
(lp2831
(dp2832
g2623
F0.9065420560747663
sg2624
F0.09345794392523364
saI428
as(S'false'
p2833
S'false'
p2834
S'false'
p2835
S'true'
p2836
S'true'
p2837
tp2838
(lp2839
(dp2840
g2623
F0.9062679700977573
sg2624
F0.09373202990224266
saI1739
as(S'true'
p2841
S'true'
p2842
S'true'
p2843
S'false'
p2844
S'false'
p2845
tp2846
(lp2847
(dp2848
g2623
F0.8847619047619047
sg2624
F0.11523809523809524
saI1050
as(S'true'
p2849
S'false'
p2850
S'false'
p2851
S'true'
p2852
S'false'
p2853
tp2854
(lp2855
(dp2856
g2623
F0.8959881129271917
sg2624
F0.10401188707280833
saI2692
as(S'true'
p2857
S'false'
p2858
S'false'
p2859
S'false'
p2860
S'false'
p2861
tp2862
(lp2863
(dp2864
g2623
F0.9005489478499542
sg2624
F0.09945105215004575
saI10930
as(S'false'
p2865
S'true'
p2866
S'true'
p2867
S'true'
p2868
S'false'
p2869
tp2870
(lp2871
(dp2872
g2623
F0.8981115502854633
sg2624
F0.10188844971453667
saI2277
ass(S'SNode_106'
p2873
S'GOAL_104, MAXIMIZE34'
p2874
tp2875
(dp2876
(S'false'
p2877
S'true'
p2878
tp2879
(lp2880
(dp2881
S'false'
p2882
F0.8015327620825203
sS'true'
p2883
F0.19846723791747972
saI35361
as(S'true'
p2884
S'false'
p2885
tp2886
(lp2887
(dp2888
g2882
F0.7993789658431214
sg2883
F0.20062103415687862
saI14814
as(S'false'
p2889
S'false'
p2890
tp2891
(lp2892
(dp2893
g2882
F0.797098976109215
sg2883
F0.202901023890785
saI35160
as(S'true'
p2894
S'true'
p2895
tp2896
(lp2897
(dp2898
g2882
F0.0
sg2883
F1.0
saI14665
ass(S'GOAL66'
p2899
g108
tp2900
(dp2901
(t(lp2902
(dp2903
S'false'
p2904
F0.60053
sS'true'
p2905
F0.39947
saI100000
ass(S'VALUE3'
p2906
g108
tp2907
(dp2908
(t(lp2909
(dp2910
S'false'
p2911
F0.49867
sS'true'
p2912
F0.50133
saI100000
ass(S'VECTOR73'
p2913
g108
tp2914
(dp2915
(t(lp2916
(dp2917
S'false'
p2918
F0.50095
sS'true'
p2919
F0.49905
saI100000
ass(S'GOAL_109'
p2920
S'GOAL_107, WRITE64'
p2921
tp2922
(dp2923
(S'false'
p2924
S'true'
p2925
tp2926
(lp2927
(dp2928
S'false'
p2929
F0.8037074254283901
sS'true'
p2930
F0.1962925745716099
saI37816
as(S'true'
p2931
S'false'
p2932
tp2933
(lp2934
(dp2935
g2929
F0.7995339935091953
sg2930
F0.2004660064908047
saI12017
as(S'false'
p2936
S'false'
p2937
tp2938
(lp2939
(dp2940
g2929
F0.7996993115817793
sg2930
F0.20030068841822066
saI37913
as(S'true'
p2941
S'true'
p2942
tp2943
(lp2944
(dp2945
g2929
F8.160600620205648e-05
sg2930
F0.9999183939937979
saI12254
ass(S'SNode_71'
p2946
S'GOAL_69, SNode_70, VECTOR44'
p2947
tp2948
(dp2949
(S'false'
p2950
S'false'
p2951
S'true'
p2952
tp2953
(lp2954
(dp2955
S'false'
p2956
F0.9008772218024116
sS'true'
p2957
F0.09912277819758847
saI30437
as(S'true'
p2958
S'true'
p2959
S'true'
p2960
tp2961
(lp2962
(dp2963
g2956
F0.0
sg2957
F1.0
saI7165
as(S'false'
p2964
S'true'
p2965
S'false'
p2966
tp2967
(lp2968
(dp2969
g2956
F0.8972443986608293
sg2957
F0.10275560133917075
saI7766
as(S'true'
p2970
S'true'
p2971
S'false'
p2972
tp2973
(lp2974
(dp2975
g2956
F0.9017793594306049
sg2957
F0.09822064056939502
saI7025
as(S'true'
p2976
S'false'
p2977
S'false'
p2978
tp2979
(lp2980
(dp2981
g2956
F0.8953537936913896
sg2957
F0.1046462063086104
saI4692
as(S'false'
p2982
S'false'
p2983
S'false'
p2984
tp2985
(lp2986
(dp2987
g2956
F0.9011352111754507
sg2957
F0.09886478882454935
saI30567
as(S'false'
p2988
S'true'
p2989
S'true'
p2990
tp2991
(lp2992
(dp2993
g2956
F0.9042470036477332
sg2957
F0.0957529963522668
saI7676
as(S'true'
p2994
S'false'
p2995
S'true'
p2996
tp2997
(lp2998
(dp2999
g2956
F0.8910530821917808
sg2957
F0.10894691780821918
saI4672
ass(S'NEED67'
p3000
g108
tp3001
(dp3002
(t(lp3003
(dp3004
S'false'
p3005
F0.49575
sS'true'
p3006
F0.50425
saI100000
ass(S'GOAL_104'
p3007
S'GOAL_103, CHOOSE62'
p3008
tp3009
(dp3010
(S'false'
p3011
S'true'
p3012
tp3013
(lp3014
(dp3015
S'false'
p3016
F0.7995230482979113
sS'true'
p3017
F0.20047695170208862
saI38159
as(S'true'
p3018
S'false'
p3019
tp3020
(lp3021
(dp3022
g3016
F0.8004878459079822
sg3017
F0.19951215409201783
saI11889
as(S'false'
p3023
S'false'
p3024
tp3025
(lp3026
(dp3027
g3016
F0.7998059169114562
sg3017
F0.20019408308854386
saI38128
as(S'true'
p3028
S'true'
p3029
tp3030
(lp3031
(dp3032
g3016
F0.0
sg3017
F1.0
saI11824
ass(S'SNode_7'
p3033
g108
tp3034
(dp3035
(t(lp3036
(dp3037
S'false'
p3038
F0.01916
sS'true'
p3039
F0.98084
saI100000
ass(S'GOAL_66'
p3040
S'SNode_43, GOAL_62, RESOLVE38'
p3041
tp3042
(dp3043
(S'false'
p3044
S'false'
p3045
S'true'
p3046
tp3047
(lp3048
(dp3049
S'false'
p3050
F0.8021515083126457
sS'true'
p3051
F0.19784849168735424
saI26586
as(S'true'
p3052
S'true'
p3053
S'true'
p3054
tp3055
(lp3056
(dp3057
g3050
F0.0
sg3051
F1.0
saI3578
as(S'false'
p3058
S'true'
p3059
S'false'
p3060
tp3061
(lp3062
(dp3063
g3050
F0.801413364343859
sg3051
F0.198586635656141
saI11179
as(S'true'
p3064
S'true'
p3065
S'false'
p3066
tp3067
(lp3068
(dp3069
g3050
F0.8029960429621255
sg3051
F0.19700395703787452
saI3538
as(S'true'
p3070
S'false'
p3071
S'false'
p3072
tp3073
(lp3074
(dp3075
g3050
F0.8012225226284236
sg3051
F0.19877747737157636
saI8507
as(S'false'
p3076
S'false'
p3077
S'false'
p3078
tp3079
(lp3080
(dp3081
g3050
F0.8000901340744357
sg3051
F0.19990986592556428
saI26627
as(S'false'
p3082
S'true'
p3083
S'true'
p3084
tp3085
(lp3086
(dp3087
g3050
F0.7989096984085113
sg3051
F0.2010903015914886
saI11373
as(S'true'
p3088
S'false'
p3089
S'true'
p3090
tp3091
(lp3092
(dp3093
g3050
F0.802717138875987
sg3051
F0.197282861124013
saI8612
ass(S'IDENTIFY22'
p3094
g108
tp3095
(dp3096
(t(lp3097
(dp3098
S'false'
p3099
F0.49937
sS'true'
p3100
F0.50063
saI100000
ass(S'FIND58'
p3101
g108
tp3102
(dp3103
(t(lp3104
(dp3105
S'false'
p3106
F0.70055
sS'true'
p3107
F0.29945
saI100000
ass(S'SNode_16'
p3108
g108
tp3109
(dp3110
(t(lp3111
(dp3112
S'false'
p3113
F0.02039
sS'true'
p3114
F0.97961
saI100000
ass(S'SNode_47'
p3115
S'SNode_3, VELOCITY7'
p3116
tp3117
(dp3118
(S'false'
p3119
S'true'
p3120
tp3121
(lp3122
(dp3123
S'false'
p3124
F0.8173469387755102
sS'true'
p3125
F0.1826530612244898
saI980
as(S'true'
p3126
S'false'
p3127
tp3128
(lp3129
(dp3130
g3124
F0.8013355253810712
sg3125
F0.19866447461892875
saI49269
as(S'false'
p3131
S'false'
p3132
tp3133
(lp3134
(dp3135
g3124
F0.794392523364486
sg3125
F0.205607476635514
saI963
as(S'true'
p3136
S'true'
p3137
tp3138
(lp3139
(dp3140
g3124
F0.00010248421743051571
sg3125
F0.9998975157825695
saI48788
ass(S'SNode_123'
p3141
S'SNode_4, SNode_100, GOAL_121, SNode_122, VECTOR73'
p3142
tp3143
(dp3144
(S'false'
p3145
S'false'
p3146
S'false'
p3147
S'true'
p3148
S'false'
p3149
tp3150
(lp3151
(dp3152
S'false'
p3153
F0.95
sS'true'
p3154
F0.05
saI100
as(S'true'
p3155
S'true'
p3156
S'false'
p3157
S'true'
p3158
S'true'
p3159
tp3160
(lp3161
(dp3162
g3153
F0.8970366649924661
sg3154
F0.10296333500753391
saI1991
as(S'true'
p3163
S'true'
p3164
S'false'
p3165
S'false'
p3166
S'false'
p3167
tp3168
(lp3169
(dp3170
g3153
F0.8963963963963963
sg3154
F0.1036036036036036
saI8214
as(S'true'
p3171
S'false'
p3172
S'true'
p3173
S'true'
p3174
S'true'
p3175
tp3176
(lp3177
(dp3178
g3153
F0.9026778882938026
sg3154
F0.0973221117061974
saI6535
as(S'true'
p3179
S'true'
p3180
S'false'
p3181
S'false'
p3182
S'true'
p3183
tp3184
(lp3185
(dp3186
g3153
F0.8980641999509924
sg3154
F0.1019358000490076
saI8162
as(S'false'
p3187
S'true'
p3188
S'true'
p3189
S'true'
p3190
S'true'
p3191
tp3192
(lp3193
(dp3194
g3153
F0.967741935483871
sg3154
F0.03225806451612903
saI62
as(S'false'
p3195
S'true'
p3196
S'false'
p3197
S'false'
p3198
S'true'
p3199
tp3200
(lp3201
(dp3202
g3153
F0.9047619047619048
sg3154
F0.09523809523809523
saI168
as(S'true'
p3203
S'true'
p3204
S'false'
p3205
S'true'
p3206
S'false'
p3207
tp3208
(lp3209
(dp3210
g3153
F0.9096385542168675
sg3154
F0.09036144578313253
saI1992
as(S'false'
p3211
S'false'
p3212
S'true'
p3213
S'true'
p3214
S'false'
p3215
tp3216
(lp3217
(dp3218
g3153
F0.9285714285714286
sg3154
F0.07142857142857142
saI126
as(S'false'
p3219
S'true'
p3220
S'true'
p3221
S'false'
p3222
S'true'
p3223
tp3224
(lp3225
(dp3226
g3153
F0.9024390243902439
sg3154
F0.0975609756097561
saI41
as(S'false'
p3227
S'false'
p3228
S'true'
p3229
S'false'
p3230
S'true'
p3231
tp3232
(lp3233
(dp3234
g3153
F0.9052631578947369
sg3154
F0.09473684210526316
saI95
as(S'true'
p3235
S'true'
p3236
S'true'
p3237
S'true'
p3238
S'false'
p3239
tp3240
(lp3241
(dp3242
g3153
F0.9024307900067522
sg3154
F0.09756920999324781
saI2962
as(S'false'
p3243
S'false'
p3244
S'true'
p3245
S'false'
p3246
S'false'
p3247
tp3248
(lp3249
(dp3250
g3153
F0.8725490196078431
sg3154
F0.12745098039215685
saI102
as(S'true'
p3251
S'false'
p3252
S'true'
p3253
S'false'
p3254
S'false'
p3255
tp3256
(lp3257
(dp3258
g3153
F0.9042305904230591
sg3154
F0.09576940957694095
saI4302
as(S'true'
p3259
S'true'
p3260
S'true'
p3261
S'true'
p3262
S'true'
p3263
tp3264
(lp3265
(dp3266
g3153
F0.0003534817956875221
sg3154
F0.9996465182043125
saI2829
as(S'false'
p3267
S'true'
p3268
S'false'
p3269
S'true'
p3270
S'false'
p3271
tp3272
(lp3273
(dp3274
g3153
F0.972972972972973
sg3154
F0.02702702702702703
saI37
as(S'true'
p3275
S'false'
p3276
S'false'
p3277
S'true'
p3278
S'true'
p3279
tp3280
(lp3281
(dp3282
g3153
F0.9038584523555745
sg3154
F0.09614154764442549
saI4691
as(S'true'
p3283
S'false'
p3284
S'true'
p3285
S'true'
p3286
S'false'
p3287
tp3288
(lp3289
(dp3290
g3153
F0.8976051581209702
sg3154
F0.10239484187902978
saI6514
as(S'false'
p3291
S'false'
p3292
S'false'
p3293
S'false'
p3294
S'false'
p3295
tp3296
(lp3297
(dp3298
g3153
F0.9048991354466859
sg3154
F0.09510086455331412
saI347
as(S'false'
p3299
S'true'
p3300
S'false'
p3301
S'true'
p3302
S'true'
p3303
tp3304
(lp3305
(dp3306
g3153
F0.8
sg3154
F0.2
saI40
as(S'false'
p3307
S'true'
p3308
S'true'
p3309
S'false'
p3310
S'false'
p3311
tp3312
(lp3313
(dp3314
g3153
F0.8333333333333334
sg3154
F0.16666666666666666
saI54
as(S'false'
p3315
S'false'
p3316
S'false'
p3317
S'false'
p3318
S'true'
p3319
tp3320
(lp3321
(dp3322
g3153
F0.9145299145299145
sg3154
F0.08547008547008547
saI351
as(S'false'
p3323
S'false'
p3324
S'true'
p3325
S'true'
p3326
S'true'
p3327
tp3328
(lp3329
(dp3330
g3153
F0.816793893129771
sg3154
F0.183206106870229
saI131
as(S'true'
p3331
S'false'
p3332
S'false'
p3333
S'false'
p3334
S'true'
p3335
tp3336
(lp3337
(dp3338
g3153
F0.9063930629611676
sg3154
F0.09360693703883234
saI18567
as(S'false'
p3339
S'true'
p3340
S'false'
p3341
S'false'
p3342
S'false'
p3343
tp3344
(lp3345
(dp3346
g3153
F0.8926553672316384
sg3154
F0.10734463276836158
saI177
as(S'true'
p3347
S'false'
p3348
S'true'
p3349
S'false'
p3350
S'true'
p3351
tp3352
(lp3353
(dp3354
g3153
F0.9092405360921703
sg3154
F0.09075946390782977
saI4253
as(S'true'
p3355
S'true'
p3356
S'true'
p3357
S'false'
p3358
S'true'
p3359
tp3360
(lp3361
(dp3362
g3153
F0.9006342494714588
sg3154
F0.09936575052854123
saI1892
as(S'false'
p3363
S'false'
p3364
S'false'
p3365
S'true'
p3366
S'true'
p3367
tp3368
(lp3369
(dp3370
g3153
F0.8865979381443299
sg3154
F0.1134020618556701
saI97
as(S'true'
p3371
S'true'
p3372
S'true'
p3373
S'false'
p3374
S'false'
p3375
tp3376
(lp3377
(dp3378
g3153
F0.9045407636738906
sg3154
F0.09545923632610939
saI1938
as(S'true'
p3379
S'false'
p3380
S'false'
p3381
S'true'
p3382
S'false'
p3383
tp3384
(lp3385
(dp3386
g3153
F0.9020585048754063
sg3154
F0.09794149512459371
saI4615
as(S'true'
p3387
S'false'
p3388
S'false'
p3389
S'false'
p3390
S'false'
p3391
tp3392
(lp3393
(dp3394
g3153
F0.8997790829247265
sg3154
F0.10022091707527345
saI18559
as(S'false'
p3395
S'true'
p3396
S'true'
p3397
S'true'
p3398
S'false'
p3399
tp3400
(lp3401
(dp3402
g3153
F0.8928571428571429
sg3154
F0.10714285714285714
saI56
ass(S'SNode_42'
p3403
S'SNode_8, SNode_41, KNOWN6'
p3404
tp3405
(dp3406
(S'false'
p3407
S'false'
p3408
S'true'
p3409
tp3410
(lp3411
(dp3412
S'false'
p3413
F0.801980198019802
sS'true'
p3414
F0.19801980198019803
saI202
as(S'true'
p3415
S'true'
p3416
S'true'
p3417
tp3418
(lp3419
(dp3420
g3413
F6.81640025902321e-05
sg3414
F0.9999318359974098
saI29341
as(S'false'
p3421
S'true'
p3422
S'false'
p3423
tp3424
(lp3425
(dp3426
g3413
F0.836
sg3414
F0.164
saI250
as(S'true'
p3427
S'true'
p3428
S'false'
p3429
tp3430
(lp3431
(dp3432
g3413
F0.7989211058664869
sg3414
F0.20107889413351315
saI29660
as(S'true'
p3433
S'false'
p3434
S'false'
p3435
tp3436
(lp3437
(dp3438
g3413
F0.8006800680068007
sg3414
F0.1993199319931993
saI19998
as(S'false'
p3439
S'false'
p3440
S'false'
p3441
tp3442
(lp3443
(dp3444
g3413
F0.7453416149068323
sg3414
F0.2546583850931677
saI161
as(S'false'
p3445
S'true'
p3446
S'true'
p3447
tp3448
(lp3449
(dp3450
g3413
F0.7666666666666667
sg3414
F0.23333333333333334
saI270
as(S'true'
p3451
S'false'
p3452
S'true'
p3453
tp3454
(lp3455
(dp3456
g3413
F0.7992345163535143
sg3414
F0.20076548364648572
saI20118
ass(S'SNode_74'
p3457
S'GOAL_62, SNode_64, SNode_67, SNode_70, SNode_73, KINE29'
p3458
tp3459
(dp3460
(S'false'
p3461
S'true'
p3462
S'false'
p3463
S'false'
p3464
S'false'
p3465
S'true'
p3466
tp3467
(lp3468
(dp3469
S'false'
p3470
F0.9004643064422518
sS'true'
p3471
F0.09953569355774812
saI3446
as(S'false'
p3472
S'true'
p3473
S'true'
p3474
S'true'
p3475
S'true'
p3476
S'false'
p3477
tp3478
(lp3479
(dp3480
g3470
F0.9053627760252366
sg3471
F0.0946372239747634
saI317
as(S'false'
p3481
S'false'
p3482
S'true'
p3483
S'false'
p3484
S'false'
p3485
S'false'
p3486
tp3487
(lp3488
(dp3489
g3470
F0.9044117647058824
sg3471
F0.09558823529411764
saI3536
as(S'false'
p3490
S'true'
p3491
S'true'
p3492
S'false'
p3493
S'true'
p3494
S'true'
p3495
tp3496
(lp3497
(dp3498
g3470
F0.8929110105580694
sg3471
F0.10708898944193061
saI663
as(S'false'
p3499
S'true'
p3500
S'false'
p3501
S'true'
p3502
S'false'
p3503
S'true'
p3504
tp3505
(lp3506
(dp3507
g3470
F0.9031563845050216
sg3471
F0.09684361549497848
saI1394
as(S'true'
p3508
S'true'
p3509
S'true'
p3510
S'true'
p3511
S'true'
p3512
S'true'
p3513
tp3514
(lp3515
(dp3516
g3470
F0.0
sg3471
F1.0
saI325
as(S'true'
p3517
S'true'
p3518
S'false'
p3519
S'false'
p3520
S'false'
p3521
S'true'
p3522
tp3523
(lp3524
(dp3525
g3470
F0.8943396226415095
sg3471
F0.10566037735849057
saI1325
as(S'false'
p3526
S'true'
p3527
S'false'
p3528
S'false'
p3529
S'false'
p3530
S'false'
p3531
tp3532
(lp3533
(dp3534
g3470
F0.9122807017543859
sg3471
F0.08771929824561403
saI3420
as(S'false'
p3535
S'false'
p3536
S'true'
p3537
S'true'
p3538
S'false'
p3539
S'true'
p3540
tp3541
(lp3542
(dp3543
g3470
F0.895774647887324
sg3471
F0.10422535211267606
saI1420
as(S'false'
p3544
S'false'
p3545
S'false'
p3546
S'false'
p3547
S'false'
p3548
S'true'
p3549
tp3550
(lp3551
(dp3552
g3470
F0.8951370822493496
sg3471
F0.10486291775065039
saI9994
as(S'true'
p3553
S'true'
p3554
S'false'
p3555
S'true'
p3556
S'true'
p3557
S'true'
p3558
tp3559
(lp3560
(dp3561
g3470
F0.9180327868852459
sg3471
F0.08196721311475409
saI427
as(S'true'
p3562
S'false'
p3563
S'false'
p3564
S'true'
p3565
S'false'
p3566
S'false'
p3567
tp3568
(lp3569
(dp3570
g3470
F0.8888065233506302
sg3471
F0.1111934766493699
saI1349
as(S'true'
p3571
S'false'
p3572
S'false'
p3573
S'false'
p3574
S'true'
p3575
S'false'
p3576
tp3577
(lp3578
(dp3579
g3470
F0.9006024096385542
sg3471
F0.09939759036144578
saI1328
as(S'false'
p3580
S'false'
p3581
S'false'
p3582
S'false'
p3583
S'true'
p3584
S'true'
p3585
tp3586
(lp3587
(dp3588
g3470
F0.8949900934050382
sg3471
F0.10500990659496179
saI3533
as(S'false'
p3589
S'false'
p3590
S'false'
p3591
S'false'
p3592
S'true'
p3593
S'false'
p3594
tp3595
(lp3596
(dp3597
g3470
F0.8970070422535211
sg3471
F0.10299295774647887
saI3408
as(S'false'
p3598
S'false'
p3599
S'true'
p3600
S'false'
p3601
S'false'
p3602
S'true'
p3603
tp3604
(lp3605
(dp3606
g3470
F0.9085457271364318
sg3471
F0.09145427286356822
saI3335
as(S'false'
p3607
S'false'
p3608
S'true'
p3609
S'false'
p3610
S'true'
p3611
S'false'
p3612
tp3613
(lp3614
(dp3615
g3470
F0.8984962406015038
sg3471
F0.10150375939849623
saI1330
as(S'true'
p3616
S'true'
p3617
S'true'
p3618
S'true'
p3619
S'true'
p3620
S'false'
p3621
tp3622
(lp3623
(dp3624
g3470
F0.8929765886287625
sg3471
F0.10702341137123746
saI299
as(S'false'
p3625
S'true'
p3626
S'true'
p3627
S'true'
p3628
S'true'
p3629
S'true'
p3630
tp3631
(lp3632
(dp3633
g3470
F0.879746835443038
sg3471
F0.12025316455696203
saI316
as(S'true'
p3634
S'true'
p3635
S'true'
p3636
S'false'
p3637
S'true'
p3638
S'true'
p3639
tp3640
(lp3641
(dp3642
g3470
F0.8865435356200527
sg3471
F0.11345646437994723
saI379
as(S'true'
p3643
S'false'
p3644
S'true'
p3645
S'true'
p3646
S'false'
p3647
S'false'
p3648
tp3649
(lp3650
(dp3651
g3470
F0.8907692307692308
sg3471
F0.10923076923076923
saI650
as(S'false'
p3652
S'false'
p3653
S'false'
p3654
S'false'
p3655
S'false'
p3656
S'false'
p3657
tp3658
(lp3659
(dp3660
g3470
F0.9021886500096843
sg3471
F0.09781134999031571
saI10326
as(S'true'
p3661
S'true'
p3662
S'false'
p3663
S'true'
p3664
S'false'
p3665
S'false'
p3666
tp3667
(lp3668
(dp3669
g3470
F0.8988439306358381
sg3471
F0.10115606936416185
saI692
as(S'true'
p3670
S'false'
p3671
S'false'
p3672
S'true'
p3673
S'false'
p3674
S'true'
p3675
tp3676
(lp3677
(dp3678
g3470
F0.9068554396423248
sg3471
F0.09314456035767511
saI1342
as(S'true'
p3679
S'false'
p3680
S'true'
p3681
S'true'
p3682
S'true'
p3683
S'false'
p3684
tp3685
(lp3686
(dp3687
g3470
F0.9032258064516129
sg3471
F0.0967741935483871
saI403
as(S'false'
p3688
S'true'
p3689
S'true'
p3690
S'true'
p3691
S'false'
p3692
S'true'
p3693
tp3694
(lp3695
(dp3696
g3470
F0.9118086696562033
sg3471
F0.08819133034379671
saI669
as(S'true'
p3697
S'true'
p3698
S'true'
p3699
S'true'
p3700
S'false'
p3701
S'false'
p3702
tp3703
(lp3704
(dp3705
g3470
F0.8833746898263027
sg3471
F0.11662531017369727
saI403
as(S'false'
p3706
S'true'
p3707
S'false'
p3708
S'true'
p3709
S'true'
p3710
S'false'
p3711
tp3712
(lp3713
(dp3714
g3470
F0.8977272727272727
sg3471
F0.10227272727272728
saI616
as(S'true'
p3715
S'false'
p3716
S'false'
p3717
S'true'
p3718
S'true'
p3719
S'true'
p3720
tp3721
(lp3722
(dp3723
g3470
F0.9117647058823529
sg3471
F0.08823529411764706
saI714
as(S'true'
p3724
S'false'
p3725
S'true'
p3726
S'false'
p3727
S'false'
p3728
S'true'
p3729
tp3730
(lp3731
(dp3732
g3470
F0.8939984411535464
sg3471
F0.10600155884645363
saI1283
as(S'true'
p3733
S'false'
p3734
S'true'
p3735
S'false'
p3736
S'true'
p3737
S'false'
p3738
tp3739
(lp3740
(dp3741
g3470
F0.9147540983606557
sg3471
F0.08524590163934426
saI610
as(S'true'
p3742
S'true'
p3743
S'false'
p3744
S'false'
p3745
S'false'
p3746
S'false'
p3747
tp3748
(lp3749
(dp3750
g3470
F0.8991163475699558
sg3471
F0.10088365243004419
saI1358
as(S'true'
p3751
S'false'
p3752
S'false'
p3753
S'false'
p3754
S'true'
p3755
S'true'
p3756
tp3757
(lp3758
(dp3759
g3470
F0.8990129081245254
sg3471
F0.10098709187547457
saI1317
as(S'true'
p3760
S'false'
p3761
S'true'
p3762
S'false'
p3763
S'true'
p3764
S'true'
p3765
tp3766
(lp3767
(dp3768
g3470
F0.8862876254180602
sg3471
F0.11371237458193979
saI598
as(S'false'
p3769
S'true'
p3770
S'true'
p3771
S'true'
p3772
S'false'
p3773
S'false'
p3774
tp3775
(lp3776
(dp3777
g3470
F0.8977777777777778
sg3471
F0.10222222222222223
saI675
as(S'true'
p3778
S'false'
p3779
S'false'
p3780
S'false'
p3781
S'false'
p3782
S'true'
p3783
tp3784
(lp3785
(dp3786
g3470
F0.9039934354485777
sg3471
F0.09600656455142231
saI3656
as(S'false'
p3787
S'false'
p3788
S'true'
p3789
S'true'
p3790
S'true'
p3791
S'true'
p3792
tp3793
(lp3794
(dp3795
g3470
F0.9155354449472096
sg3471
F0.08446455505279035
saI663
as(S'true'
p3796
S'true'
p3797
S'false'
p3798
S'true'
p3799
S'true'
p3800
S'false'
p3801
tp3802
(lp3803
(dp3804
g3470
F0.9312796208530806
sg3471
F0.06872037914691943
saI422
as(S'true'
p3805
S'false'
p3806
S'false'
p3807
S'false'
p3808
S'false'
p3809
S'false'
p3810
tp3811
(lp3812
(dp3813
g3470
F0.903096636412173
sg3471
F0.09690336358782702
saI3746
as(S'false'
p3814
S'true'
p3815
S'false'
p3816
S'false'
p3817
S'true'
p3818
S'false'
p3819
tp3820
(lp3821
(dp3822
g3470
F0.9042627533193571
sg3471
F0.0957372466806429
saI1431
as(S'false'
p3823
S'true'
p3824
S'true'
p3825
S'false'
p3826
S'false'
p3827
S'true'
p3828
tp3829
(lp3830
(dp3831
g3470
F0.9049676025917927
sg3471
F0.09503239740820735
saI1389
as(S'false'
p3832
S'true'
p3833
S'false'
p3834
S'true'
p3835
S'false'
p3836
S'false'
p3837
tp3838
(lp3839
(dp3840
g3470
F0.8938381588715665
sg3471
F0.10616184112843356
saI1347
as(S'false'
p3841
S'true'
p3842
S'true'
p3843
S'false'
p3844
S'false'
p3845
S'false'
p3846
tp3847
(lp3848
(dp3849
g3470
F0.8856932153392331
sg3471
F0.11430678466076696
saI1356
as(S'false'
p3850
S'false'
p3851
S'false'
p3852
S'true'
p3853
S'true'
p3854
S'false'
p3855
tp3856
(lp3857
(dp3858
g3470
F0.8954154727793696
sg3471
F0.10458452722063037
saI1396
as(S'true'
p3859
S'true'
p3860
S'true'
p3861
S'false'
p3862
S'false'
p3863
S'false'
p3864
tp3865
(lp3866
(dp3867
g3470
F0.8984771573604061
sg3471
F0.10152284263959391
saI591
as(S'false'
p3868
S'true'
p3869
S'false'
p3870
S'false'
p3871
S'true'
p3872
S'true'
p3873
tp3874
(lp3875
(dp3876
g3470
F0.9018450184501845
sg3471
F0.0981549815498155
saI1355
as(S'true'
p3877
S'true'
p3878
S'false'
p3879
S'false'
p3880
S'true'
p3881
S'false'
p3882
tp3883
(lp3884
(dp3885
g3470
F0.909375
sg3471
F0.090625
saI640
as(S'true'
p3886
S'false'
p3887
S'false'
p3888
S'true'
p3889
S'true'
p3890
S'false'
p3891
tp3892
(lp3893
(dp3894
g3470
F0.8839285714285714
sg3471
F0.11607142857142858
saI672
as(S'true'
p3895
S'false'
p3896
S'true'
p3897
S'true'
p3898
S'false'
p3899
S'true'
p3900
tp3901
(lp3902
(dp3903
g3470
F0.9065849923430321
sg3471
F0.09341500765696784
saI653
as(S'false'
p3904
S'true'
p3905
S'false'
p3906
S'true'
p3907
S'true'
p3908
S'true'
p3909
tp3910
(lp3911
(dp3912
g3470
F0.889776357827476
sg3471
F0.11022364217252396
saI626
as(S'true'
p3913
S'true'
p3914
S'true'
p3915
S'false'
p3916
S'true'
p3917
S'false'
p3918
tp3919
(lp3920
(dp3921
g3470
F0.9095607235142119
sg3471
F0.09043927648578812
saI387
as(S'false'
p3922
S'false'
p3923
S'false'
p3924
S'true'
p3925
S'false'
p3926
S'true'
p3927
tp3928
(lp3929
(dp3930
g3470
F0.9026933101650738
sg3471
F0.09730668983492616
saI3453
as(S'false'
p3931
S'false'
p3932
S'false'
p3933
S'true'
p3934
S'false'
p3935
S'false'
p3936
tp3937
(lp3938
(dp3939
g3470
F0.8999433106575964
sg3471
F0.10005668934240362
saI3528
as(S'true'
p3940
S'true'
p3941
S'false'
p3942
S'false'
p3943
S'true'
p3944
S'true'
p3945
tp3946
(lp3947
(dp3948
g3470
F0.8865814696485623
sg3471
F0.1134185303514377
saI626
as(S'false'
p3949
S'false'
p3950
S'true'
p3951
S'true'
p3952
S'false'
p3953
S'false'
p3954
tp3955
(lp3956
(dp3957
g3470
F0.9008559201141226
sg3471
F0.09914407988587731
saI1402
as(S'true'
p3958
S'false'
p3959
S'true'
p3960
S'false'
p3961
S'false'
p3962
S'false'
p3963
tp3964
(lp3965
(dp3966
g3470
F0.9057315233785822
sg3471
F0.0942684766214178
saI1326
as(S'false'
p3967
S'false'
p3968
S'true'
p3969
S'false'
p3970
S'true'
p3971
S'true'
p3972
tp3973
(lp3974
(dp3975
g3470
F0.8973051711580481
sg3471
F0.10269482884195193
saI1373
as(S'false'
p3976
S'false'
p3977
S'false'
p3978
S'true'
p3979
S'true'
p3980
S'true'
p3981
tp3982
(lp3983
(dp3984
g3470
F0.8987435328898744
sg3471
F0.10125646711012565
saI1353
as(S'true'
p3985
S'false'
p3986
S'true'
p3987
S'true'
p3988
S'true'
p3989
S'true'
p3990
tp3991
(lp3992
(dp3993
g3470
F0.905
sg3471
F0.095
saI400
as(S'true'
p3994
S'true'
p3995
S'false'
p3996
S'true'
p3997
S'false'
p3998
S'true'
p3999
tp4000
(lp4001
(dp4002
g3470
F0.9100449775112444
sg3471
F0.08995502248875563
saI667
as(S'true'
p4003
S'true'
p4004
S'true'
p4005
S'false'
p4006
S'false'
p4007
S'true'
p4008
tp4009
(lp4010
(dp4011
g3470
F0.8893871449925261
sg3471
F0.11061285500747384
saI669
as(S'false'
p4012
S'true'
p4013
S'true'
p4014
S'false'
p4015
S'true'
p4016
S'false'
p4017
tp4018
(lp4019
(dp4020
g3470
F0.8911671924290221
sg3471
F0.10883280757097792
saI634
as(S'false'
p4021
S'false'
p4022
S'true'
p4023
S'true'
p4024
S'true'
p4025
S'false'
p4026
tp4027
(lp4028
(dp4029
g3470
F0.9012738853503185
sg3471
F0.09872611464968153
saI628
as(S'true'
p4030
S'true'
p4031
S'true'
p4032
S'true'
p4033
S'false'
p4034
S'true'
p4035
tp4036
(lp4037
(dp4038
g3470
F0.902676399026764
sg3471
F0.09732360097323602
saI411
ass(S'SNode_55'
p4039
S'SNode_34, GOAL_53, IDENTIFY43'
p4040
tp4041
(dp4042
(S'false'
p4043
S'false'
p4044
S'true'
p4045
tp4046
(lp4047
(dp4048
S'false'
p4049
F0.7978250123578843
sS'true'
p4050
F0.20217498764211567
saI12138
as(S'true'
p4051
S'true'
p4052
S'true'
p4053
tp4054
(lp4055
(dp4056
g4049
F0.00032965221691115873
sg4050
F0.9996703477830888
saI6067
as(S'false'
p4057
S'true'
p4058
S'false'
p4059
tp4060
(lp4061
(dp4062
g4049
F0.8073823339780787
sg4050
F0.19261766602192135
saI6204
as(S'true'
p4063
S'true'
p4064
S'false'
p4065
tp4066
(lp4067
(dp4068
g4049
F0.8047975352112676
sg4050
F0.1952024647887324
saI9088
as(S'true'
p4069
S'false'
p4070
S'false'
p4071
tp4072
(lp4073
(dp4074
g4049
F0.7982229220560118
sg4050
F0.2017770779439883
saI26673
as(S'false'
p4075
S'false'
p4076
S'false'
p4077
tp4078
(lp4079
(dp4080
g4049
F0.7994676131322094
sg4050
F0.2005323868677906
saI18032
as(S'false'
p4081
S'true'
p4082
S'true'
p4083
tp4084
(lp4085
(dp4086
g4049
F0.7974199713330148
sg4050
F0.20258002866698518
saI4186
as(S'true'
p4087
S'false'
p4088
S'true'
p4089
tp4090
(lp4091
(dp4092
g4049
F0.7958210311151488
sg4050
F0.20417896888485124
saI17612
ass(S'SNode_59'
p4093
S'SNode_7, GOAL_57, MAXIMIZE34'
p4094
tp4095
(dp4096
(S'false'
p4097
S'false'
p4098
S'true'
p4099
tp4100
(lp4101
(dp4102
S'false'
p4103
F0.7967836257309941
sS'true'
p4104
F0.20321637426900585
saI684
as(S'true'
p4105
S'true'
p4106
S'true'
p4107
tp4108
(lp4109
(dp4110
g4103
F6.703760809814306e-05
sg4104
F0.9999329623919019
saI14917
as(S'false'
p4111
S'true'
p4112
S'false'
p4113
tp4114
(lp4115
(dp4116
g4103
F0.7737704918032787
sg4104
F0.2262295081967213
saI305
as(S'true'
p4117
S'true'
p4118
S'false'
p4119
tp4120
(lp4121
(dp4122
g4103
F0.8016007596825612
sg4104
F0.19839924031743877
saI14743
as(S'true'
p4123
S'false'
p4124
S'false'
p4125
tp4126
(lp4127
(dp4128
g4103
F0.7991949127822181
sg4104
F0.20080508721778192
saI34282
as(S'false'
p4129
S'false'
p4130
S'false'
p4131
tp4132
(lp4133
(dp4134
g4103
F0.8012422360248447
sg4104
F0.19875776397515527
saI644
as(S'false'
p4135
S'true'
p4136
S'true'
p4137
tp4138
(lp4139
(dp4140
g4103
F0.773851590106007
sg4104
F0.22614840989399293
saI283
as(S'true'
p4141
S'false'
p4142
S'true'
p4143
tp4144
(lp4145
(dp4146
g4103
F0.7984300861109483
sg4104
F0.2015699138890516
saI34142
ass(S'GIVEN21'
p4147
g108
tp4148
(dp4149
(t(lp4150
(dp4151
S'false'
p4152
F0.10039
sS'true'
p4153
F0.89961
saI100000
ass(S'FORCE60'
p4154
g108
tp4155
(dp4156
(t(lp4157
(dp4158
S'false'
p4159
F0.19949
sS'true'
p4160
F0.80051
saI100000
ass(S'TRY12'
p4161
g108
tp4162
(dp4163
(t(lp4164
(dp4165
S'false'
p4166
F0.69891
sS'true'
p4167
F0.30109
saI100000
ass(S'EQUAL71'
p4168
g108
tp4169
(dp4170
(t(lp4171
(dp4172
S'false'
p4173
F0.40214
sS'true'
p4174
F0.59786
saI100000
ass(S'SNode_3'
p4175
g108
tp4176
(dp4177
(t(lp4178
(dp4179
S'false'
p4180
F0.01943
sS'true'
p4181
F0.98057
saI100000
ass(S'GRAV78'
p4182
g108
tp4183
(dp4184
(t(lp4185
(dp4186
S'false'
p4187
F0.49998
sS'true'
p4188
F0.50002
saI100000
ass(S'GOAL_63'
p4189
S'SNode_28, GOAL_62, RESOLVE37'
p4190
tp4191
(dp4192
(S'false'
p4193
S'false'
p4194
S'true'
p4195
tp4196
(lp4197
(dp4198
S'false'
p4199
F0.8013121627392368
sS'true'
p4200
F0.19868783726076322
saI25759
as(S'true'
p4201
S'true'
p4202
S'true'
p4203
tp4204
(lp4205
(dp4206
g4199
F0.0
sg4200
F1.0
saI4073
as(S'false'
p4207
S'true'
p4208
S'false'
p4209
tp4210
(lp4211
(dp4212
g4199
F0.8007031828275352
sg4200
F0.19929681717246484
saI10808
as(S'true'
p4213
S'true'
p4214
S'false'
p4215
tp4216
(lp4217
(dp4218
g4199
F0.8011854778957768
sg4200
F0.19881452210422326
saI4049
as(S'true'
p4219
S'false'
p4220
S'false'
p4221
tp4222
(lp4223
(dp4224
g4199
F0.8021989639496776
sg4200
F0.19780103605032245
saI9459
as(S'false'
p4225
S'false'
p4226
S'false'
p4227
tp4228
(lp4229
(dp4230
g4199
F0.80075989609584
sg4200
F0.19924010390416005
saI25793
as(S'false'
p4231
S'true'
p4232
S'true'
p4233
tp4234
(lp4235
(dp4236
g4199
F0.8036878375861427
sg4200
F0.19631216241385732
saI10738
as(S'true'
p4237
S'false'
p4238
S'true'
p4239
tp4240
(lp4241
(dp4242
g4199
F0.7954082180023603
sg4200
F0.20459178199763975
saI9321
ass(S'STRAT_90'
p4243
g108
tp4244
(dp4245
(t(lp4246
(dp4247
S'SNode_92_1'
p4248
F0.49972
sS'SNode_91_2'
p4249
F0.50028
saI100000
ass(S'GOAL68'
p4250
g108
tp4251
(dp4252
(t(lp4253
(dp4254
S'false'
p4255
F0.498
sS'true'
p4256
F0.502
saI100000
ass(S'NORMAL52'
p4257
g108
tp4258
(dp4259
(t(lp4260
(dp4261
S'false'
p4262
F0.64783
sS'true'
p4263
F0.35217
saI100000
ass(S'INCLINE51'
p4264
S'NORMAL52'
p4265
tp4266
(dp4267
(S'true'
p4268
tp4269
(lp4270
(dp4271
S'false'
p4272
F0.0
sS'true'
p4273
F1.0
saI35217
as(S'false'
p4274
tp4275
(lp4276
(dp4277
g4272
F1.0
sg4273
F0.0
saI64783
ass(S'GOAL_48'
p4278
S'GOAL_2, COMPO16'
p4279
tp4280
(dp4281
(S'false'
p4282
S'true'
p4283
tp4284
(lp4285
(dp4286
S'false'
p4287
F0.8125643666323378
sS'true'
p4288
F0.1874356333676622
saI971
as(S'true'
p4289
S'false'
p4290
tp4291
(lp4292
(dp4293
g4287
F0.8035779704481621
sg4288
F0.19642202955183782
saI49134
as(S'false'
p4294
S'false'
p4295
tp4296
(lp4297
(dp4298
g4287
F0.770392749244713
sg4288
F0.229607250755287
saI993
as(S'true'
p4299
S'true'
p4300
tp4301
(lp4302
(dp4303
g4287
F0.00010224530694041144
sg4288
F0.9998977546930596
saI48902
ass(S'GRAV2'
p4304
g108
tp4305
(dp4306
(t(lp4307
(dp4308
S'false'
p4309
F0.50146
sS'true'
p4310
F0.49854
saI100000
ass(S'SYSTEM18'
p4311
g108
tp4312
(dp4313
(t(lp4314
(dp4315
S'false'
p4316
F0.49813
sS'true'
p4317
F0.50187
saI100000
ass(S'SNode_18'
p4318
g108
tp4319
(dp4320
(t(lp4321
(dp4322
S'false'
p4323
F0.01979
sS'true'
p4324
F0.98021
saI100000
ass(S'GOAL_127'
p4325
S'GOAL_108, GOAL66'
p4326
tp4327
(dp4328
(S'false'
p4329
S'true'
p4330
tp4331
(lp4332
(dp4333
S'false'
p4334
F0.8013148542999289
sS'true'
p4335
F0.19868514570007106
saI28140
as(S'true'
p4336
S'false'
p4337
tp4338
(lp4339
(dp4340
g4334
F0.795823927765237
sg4335
F0.20417607223476297
saI17720
as(S'false'
p4341
S'false'
p4342
tp4343
(lp4344
(dp4345
g4334
F0.8009826849030307
sg4335
F0.19901731509696927
saI42333
as(S'true'
p4346
S'true'
p4347
tp4348
(lp4349
(dp4350
g4334
F8.469551960701279e-05
sg4335
F0.999915304480393
saI11807
ass(S'GOAL_87'
p4351
S'GOAL_83, SNode_156, FIND49'
p4352
tp4353
(dp4354
(S'false'
p4355
S'false'
p4356
S'true'
p4357
tp4358
(lp4359
(dp4360
S'false'
p4361
F0.7037712261693927
sS'true'
p4362
F0.29622877383060736
saI19198
as(S'true'
p4363
S'true'
p4364
S'true'
p4365
tp4366
(lp4367
(dp4368
g4361
F0.0
sg4362
F1.0
saI8115
as(S'false'
p4369
S'true'
p4370
S'false'
p4371
tp4372
(lp4373
(dp4374
g4361
F0.6973754686663096
sg4362
F0.30262453133369044
saI7468
as(S'true'
p4375
S'true'
p4376
S'false'
p4377
tp4378
(lp4379
(dp4380
g4361
F0.6918513137183678
sg4362
F0.30814868628163217
saI8259
as(S'true'
p4381
S'false'
p4382
S'false'
p4383
tp4384
(lp4385
(dp4386
g4361
F0.6975766730150391
sg4362
F0.30242332698496094
saI15227
as(S'false'
p4387
S'false'
p4388
S'false'
p4389
tp4390
(lp4391
(dp4392
g4361
F0.6953386287625418
sg4362
F0.3046613712374582
saI19136
as(S'false'
p4393
S'true'
p4394
S'true'
p4395
tp4396
(lp4397
(dp4398
g4361
F0.709971432458169
sg4362
F0.29002856754183104
saI7351
as(S'true'
p4399
S'false'
p4400
S'true'
p4401
tp4402
(lp4403
(dp4404
g4361
F0.7017578381214745
sg4362
F0.29824216187852554
saI15246
ass(S'SNode_25'
p4405
S'SNode_15, SLIDING4'
p4406
tp4407
(dp4408
(S'false'
p4409
S'true'
p4410
tp4411
(lp4412
(dp4413
S'false'
p4414
F0.8984074684239429
sS'true'
p4415
F0.1015925315760571
saI1821
as(S'true'
p4416
S'false'
p4417
tp4418
(lp4419
(dp4420
g4414
F0.9064942874323512
sg4415
F0.09350571256764882
saI9978
as(S'false'
p4421
S'false'
p4422
tp4423
(lp4424
(dp4425
g4414
F0.8673469387755102
sg4415
F0.1326530612244898
saI196
as(S'true'
p4426
S'true'
p4427
tp4428
(lp4429
(dp4430
g4414
F0.00010226691665246293
sg4415
F0.9998977330833475
saI88005
ass(S'SNode_155'
p4431
S'SNode_4, SNode_100, GOAL_153, SNode_154, VECTOR44'
p4432
tp4433
(dp4434
(S'false'
p4435
S'false'
p4436
S'false'
p4437
S'true'
p4438
S'false'
p4439
tp4440
(lp4441
(dp4442
S'false'
p4443
F0.8827586206896552
sS'true'
p4444
F0.11724137931034483
saI145
as(S'true'
p4445
S'true'
p4446
S'false'
p4447
S'true'
p4448
S'true'
p4449
tp4450
(lp4451
(dp4452
g4443
F0.9013813042081593
sg4444
F0.09861869579184067
saI3113
as(S'true'
p4453
S'true'
p4454
S'false'
p4455
S'false'
p4456
S'false'
p4457
tp4458
(lp4459
(dp4460
g4443
F0.895859649122807
sg4444
F0.10414035087719298
saI7125
as(S'true'
p4461
S'false'
p4462
S'true'
p4463
S'true'
p4464
S'true'
p4465
tp4466
(lp4467
(dp4468
g4443
F0.9021255561047948
sg4444
F0.09787444389520514
saI4046
as(S'true'
p4469
S'true'
p4470
S'false'
p4471
S'false'
p4472
S'true'
p4473
tp4474
(lp4475
(dp4476
g4443
F0.9015173203549957
sg4444
F0.09848267964500429
saI6986
as(S'false'
p4477
S'true'
p4478
S'true'
p4479
S'true'
p4480
S'true'
p4481
tp4482
(lp4483
(dp4484
g4443
F1.0
sg4444
F0.0
saI38
as(S'false'
p4485
S'true'
p4486
S'false'
p4487
S'false'
p4488
S'true'
p4489
tp4490
(lp4491
(dp4492
g4443
F0.8819444444444444
sg4444
F0.11805555555555555
saI144
as(S'true'
p4493
S'true'
p4494
S'false'
p4495
S'true'
p4496
S'false'
p4497
tp4498
(lp4499
(dp4500
g4443
F0.9055944055944056
sg4444
F0.0944055944055944
saI3146
as(S'false'
p4501
S'false'
p4502
S'true'
p4503
S'true'
p4504
S'false'
p4505
tp4506
(lp4507
(dp4508
g4443
F0.8589743589743589
sg4444
F0.14102564102564102
saI78
as(S'false'
p4509
S'true'
p4510
S'true'
p4511
S'false'
p4512
S'true'
p4513
tp4514
(lp4515
(dp4516
g4443
F0.9146341463414634
sg4444
F0.08536585365853659
saI82
as(S'false'
p4517
S'false'
p4518
S'true'
p4519
S'false'
p4520
S'true'
p4521
tp4522
(lp4523
(dp4524
g4443
F0.875968992248062
sg4444
F0.12403100775193798
saI129
as(S'true'
p4525
S'true'
p4526
S'true'
p4527
S'true'
p4528
S'false'
p4529
tp4530
(lp4531
(dp4532
g4443
F0.9016120066703724
sg4444
F0.09838799332962757
saI1799
as(S'false'
p4533
S'false'
p4534
S'true'
p4535
S'false'
p4536
S'false'
p4537
tp4538
(lp4539
(dp4540
g4443
F0.921875
sg4444
F0.078125
saI128
as(S'true'
p4541
S'false'
p4542
S'true'
p4543
S'false'
p4544
S'false'
p4545
tp4546
(lp4547
(dp4548
g4443
F0.9004418262150221
sg4444
F0.0995581737849779
saI6790
as(S'true'
p4549
S'true'
p4550
S'true'
p4551
S'true'
p4552
S'true'
p4553
tp4554
(lp4555
(dp4556
g4443
F0.0
sg4444
F1.0
saI1798
as(S'false'
p4557
S'true'
p4558
S'false'
p4559
S'true'
p4560
S'false'
p4561
tp4562
(lp4563
(dp4564
g4443
F0.9402985074626866
sg4444
F0.05970149253731343
saI67
as(S'true'
p4565
S'false'
p4566
S'false'
p4567
S'true'
p4568
S'true'
p4569
tp4570
(lp4571
(dp4572
g4443
F0.9004926108374385
sg4444
F0.09950738916256158
saI7105
as(S'true'
p4573
S'false'
p4574
S'true'
p4575
S'true'
p4576
S'false'
p4577
tp4578
(lp4579
(dp4580
g4443
F0.8955151515151515
sg4444
F0.10448484848484849
saI4125
as(S'false'
p4581
S'false'
p4582
S'false'
p4583
S'false'
p4584
S'false'
p4585
tp4586
(lp4587
(dp4588
g4443
F0.92
sg4444
F0.08
saI325
as(S'false'
p4589
S'true'
p4590
S'false'
p4591
S'true'
p4592
S'true'
p4593
tp4594
(lp4595
(dp4596
g4443
F0.9107142857142857
sg4444
F0.08928571428571429
saI56
as(S'false'
p4597
S'true'
p4598
S'true'
p4599
S'false'
p4600
S'false'
p4601
tp4602
(lp4603
(dp4604
g4443
F0.864406779661017
sg4444
F0.13559322033898305
saI59
as(S'false'
p4605
S'false'
p4606
S'false'
p4607
S'false'
p4608
S'true'
p4609
tp4610
(lp4611
(dp4612
g4443
F0.9448051948051948
sg4444
F0.05519480519480519
saI308
as(S'false'
p4613
S'false'
p4614
S'true'
p4615
S'true'
p4616
S'true'
p4617
tp4618
(lp4619
(dp4620
g4443
F0.8518518518518519
sg4444
F0.14814814814814814
saI81
as(S'true'
p4621
S'false'
p4622
S'false'
p4623
S'false'
p4624
S'true'
p4625
tp4626
(lp4627
(dp4628
g4443
F0.9026058834504633
sg4444
F0.09739411654953667
saI16079
as(S'false'
p4629
S'true'
p4630
S'false'
p4631
S'false'
p4632
S'false'
p4633
tp4634
(lp4635
(dp4636
g4443
F0.9430379746835443
sg4444
F0.056962025316455694
saI158
as(S'true'
p4637
S'false'
p4638
S'true'
p4639
S'false'
p4640
S'true'
p4641
tp4642
(lp4643
(dp4644
g4443
F0.9012710611882944
sg4444
F0.09872893881170558
saI6766
as(S'true'
p4645
S'true'
p4646
S'true'
p4647
S'false'
p4648
S'true'
p4649
tp4650
(lp4651
(dp4652
g4443
F0.8929503916449086
sg4444
F0.10704960835509138
saI3064
as(S'false'
p4653
S'false'
p4654
S'false'
p4655
S'true'
p4656
S'true'
p4657
tp4658
(lp4659
(dp4660
g4443
F0.896774193548387
sg4444
F0.1032258064516129
saI155
as(S'true'
p4661
S'true'
p4662
S'true'
p4663
S'false'
p4664
S'false'
p4665
tp4666
(lp4667
(dp4668
g4443
F0.8989487962021024
sg4444
F0.10105120379789759
saI2949
as(S'true'
p4669
S'false'
p4670
S'false'
p4671
S'true'
p4672
S'false'
p4673
tp4674
(lp4675
(dp4676
g4443
F0.9010973350434659
sg4444
F0.09890266495653413
saI7017
as(S'true'
p4677
S'false'
p4678
S'false'
p4679
S'false'
p4680
S'false'
p4681
tp4682
(lp4683
(dp4684
g4443
F0.8994288552272163
sg4444
F0.10057114477278371
saI16108
as(S'false'
p4685
S'true'
p4686
S'true'
p4687
S'true'
p4688
S'false'
p4689
tp4690
(lp4691
(dp4692
g4443
F0.9354838709677419
sg4444
F0.06451612903225806
saI31
ass(S'SNode_151'
p4693
S'GOAL_150, GRAV78'
p4694
tp4695
(dp4696
(S'false'
p4697
S'true'
p4698
tp4699
(lp4700
(dp4701
S'false'
p4702
F0.899695969648936
sS'true'
p4703
F0.10030403035106411
saI38483
as(S'true'
p4704
S'false'
p4705
tp4706
(lp4707
(dp4708
g4702
F0.8982905248689975
sg4703
F0.1017094751310025
saI11641
as(S'false'
p4709
S'false'
p4710
tp4711
(lp4712
(dp4713
g4702
F0.902312485335141
sg4703
F0.09768751466485909
saI38357
as(S'true'
p4714
S'true'
p4715
tp4716
(lp4717
(dp4718
g4702
F0.00026043927424255575
sg4703
F0.9997395607257574
saI11519
ass(S'SNode_34'
p4719
S'SNode_10, CONSTANT5'
p4720
tp4721
(dp4722
(S'false'
p4723
S'true'
p4724
tp4725
(lp4726
(dp4727
S'false'
p4728
F0.77734375
sS'true'
p4729
F0.22265625
saI1024
as(S'true'
p4730
S'false'
p4731
tp4732
(lp4733
(dp4734
g4728
F0.8014018211342008
sg4729
F0.19859817886579925
saI48651
as(S'false'
p4735
S'false'
p4736
tp4737
(lp4738
(dp4739
g4728
F0.7966976264189887
sg4729
F0.20330237358101136
saI969
as(S'true'
p4740
S'true'
p4741
tp4742
(lp4743
(dp4744
g4728
F6.0782883539995136e-05
sg4729
F0.99993921711646
saI49356
ass(S'GOAL_98'
p4745
S'GOAL_83, SNode_156, DEFINE23'
p4746
tp4747
(dp4748
(S'false'
p4749
S'false'
p4750
S'true'
p4751
tp4752
(lp4753
(dp4754
S'false'
p4755
F0.7962607115035056
sS'true'
p4756
F0.20373928849649442
saI19255
as(S'true'
p4757
S'true'
p4758
S'true'
p4759
tp4760
(lp4761
(dp4762
g4755
F0.0
sg4756
F1.0
saI8212
as(S'false'
p4763
S'true'
p4764
S'false'
p4765
tp4766
(lp4767
(dp4768
g4755
F0.802053776516687
sg4756
F0.19794622348331306
saI7401
as(S'true'
p4769
S'true'
p4770
S'false'
p4771
tp4772
(lp4773
(dp4774
g4755
F0.7974761087968635
sg4756
F0.2025238912031365
saI8162
as(S'true'
p4775
S'false'
p4776
S'false'
p4777
tp4778
(lp4779
(dp4780
g4755
F0.8043135192004208
sg4756
F0.19568648079957918
saI15208
as(S'false'
p4781
S'false'
p4782
S'false'
p4783
tp4784
(lp4785
(dp4786
g4755
F0.8042350227999371
sg4756
F0.1957649772000629
saI19079
as(S'false'
p4787
S'true'
p4788
S'true'
p4789
tp4790
(lp4791
(dp4792
g4755
F0.796306282016716
sg4756
F0.2036937179832839
saI7418
as(S'true'
p4793
S'false'
p4794
S'true'
p4795
tp4796
(lp4797
(dp4798
g4755
F0.8035375040943334
sg4756
F0.19646249590566656
saI15265
ass(S'RApp1'
p4799
S'DISPLACEM0, SNode_3'
p4800
tp4801
(dp4802
(S'false'
p4803
S'true'
p4804
tp4805
(lp4806
(dp4807
S'false'
p4808
F1.0
sS'true'
p4809
F0.0
saI49137
as(S'true'
p4810
S'false'
p4811
tp4812
(lp4813
(dp4814
g4808
F1.0
sg4809
F0.0
saI994
as(S'false'
p4815
S'false'
p4816
tp4817
(lp4818
(dp4819
g4808
F1.0
sg4809
F0.0
saI949
as(S'true'
p4820
S'true'
p4821
tp4822
(lp4823
(dp4824
g4808
F0.00012264922322158627
sg4809
F0.9998773507767784
saI48920
ass(S'VECTOR27'
p4825
g108
tp4826
(dp4827
(t(lp4828
(dp4829
S'false'
p4830
F0.49809
sS'true'
p4831
F0.50191
saI100000
ass(S'GOAL_103'
p4832
S'GOAL_83, SNode_102, APPLY61'
p4833
tp4834
(dp4835
(S'false'
p4836
S'false'
p4837
S'true'
p4838
tp4839
(lp4840
(dp4841
S'false'
p4842
F0.7991476242292347
sS'true'
p4843
F0.2008523757707653
saI22056
as(S'true'
p4844
S'true'
p4845
S'true'
p4846
tp4847
(lp4848
(dp4849
g4842
F0.00021240441801189465
sg4843
F0.9997875955819882
saI4708
as(S'false'
p4850
S'true'
p4851
S'false'
p4852
tp4853
(lp4854
(dp4855
g4842
F0.7970568855699539
sg4843
F0.20294311443004612
saI4553
as(S'true'
p4856
S'true'
p4857
S'false'
p4858
tp4859
(lp4860
(dp4861
g4842
F0.8009407740004276
sg4843
F0.19905922599957238
saI4677
as(S'true'
p4862
S'false'
p4863
S'false'
p4864
tp4865
(lp4866
(dp4867
g4842
F0.8039288756388415
sg4843
F0.19607112436115842
saI18784
as(S'false'
p4868
S'false'
p4869
S'false'
p4870
tp4871
(lp4872
(dp4873
g4842
F0.7983636363636364
sg4843
F0.20163636363636364
saI22000
as(S'false'
p4874
S'true'
p4875
S'true'
p4876
tp4877
(lp4878
(dp4879
g4842
F0.808318661971831
sg4843
F0.191681338028169
saI4544
as(S'true'
p4880
S'false'
p4881
S'true'
p4882
tp4883
(lp4884
(dp4885
g4842
F0.8002462790448657
sg4843
F0.19975372095513438
saI18678
ass(S'RESOLVE37'
p4886
g108
tp4887
(dp4888
(t(lp4889
(dp4890
S'false'
p4891
F0.50109
sS'true'
p4892
F0.49891
saI100000
ass(S'NORMAL50'
p4893
g108
tp4894
(dp4895
(t(lp4896
(dp4897
S'false'
p4898
F0.50343
sS'true'
p4899
F0.49657
saI100000
ass(S'GOAL_146'
p4900
S'SNode_132, SNode_137, EQUATION28'
p4901
tp4902
(dp4903
(S'false'
p4904
S'false'
p4905
S'true'
p4906
tp4907
(lp4908
(dp4909
S'false'
p4910
F0.8025625086337892
sS'true'
p4911
F0.1974374913662108
saI28956
as(S'true'
p4912
S'true'
p4913
S'true'
p4914
tp4915
(lp4916
(dp4917
g4910
F0.0
sg4911
F1.0
saI856
as(S'false'
p4918
S'true'
p4919
S'false'
p4920
tp4921
(lp4922
(dp4923
g4910
F0.7991033101211485
sg4911
F0.20089668987885148
saI10483
as(S'true'
p4924
S'true'
p4925
S'false'
p4926
tp4927
(lp4928
(dp4929
g4910
F0.7863849765258216
sg4911
F0.2136150234741784
saI1278
as(S'true'
p4930
S'false'
p4931
S'false'
p4932
tp4933
(lp4934
(dp4935
g4910
F0.8025465230166503
sg4911
F0.19745347698334967
saI5105
as(S'false'
p4936
S'false'
p4937
S'false'
p4938
tp4939
(lp4940
(dp4941
g4910
F0.8008352971371241
sg4911
F0.19916470286287594
saI42859
as(S'false'
p4942
S'true'
p4943
S'true'
p4944
tp4945
(lp4946
(dp4947
g4910
F0.8006545247581104
sg4911
F0.19934547524188959
saI7028
as(S'true'
p4948
S'false'
p4949
S'true'
p4950
tp4951
(lp4952
(dp4953
g4910
F0.8148471615720524
sg4911
F0.1851528384279476
saI3435
ass(S'WRITE63'
p4954
g108
tp4955
(dp4956
(t(lp4957
(dp4958
S'false'
p4959
F0.50068
sS'true'
p4960
F0.49932
saI100000
ass(S'SUM75'
p4961
g108
tp4962
(dp4963
(t(lp4964
(dp4965
S'false'
p4966
F0.50065
sS'true'
p4967
F0.49935
saI100000
ass(S'GOAL_108'
p4968
S'GOAL_107, WRITE64'
p4969
tp4970
(dp4971
(S'false'
p4972
S'true'
p4973
tp4974
(lp4975
(dp4976
S'false'
p4977
F0.8018563570975249
sS'true'
p4978
F0.19814364290247513
saI37816
as(S'true'
p4979
S'false'
p4980
tp4981
(lp4982
(dp4983
g4977
F0.8029458267454439
sg4978
F0.19705417325455604
saI12017
as(S'false'
p4984
S'false'
p4985
tp4986
(lp4987
(dp4988
g4977
F0.8044997758024952
sg4978
F0.19550022419750482
saI37913
as(S'true'
p4989
S'true'
p4990
tp4991
(lp4992
(dp4993
g4977
F0.0
sg4978
F1.0
saI12254
ass(S'TRY13'
p4994
S'TRY12'
p4995
tp4996
(dp4997
(S'true'
p4998
tp4999
(lp5000
(dp5001
S'false'
p5002
F0.0
sS'true'
p5003
F1.0
saI30109
as(S'false'
p5004
tp5005
(lp5006
(dp5007
g5002
F0.7978566625173484
sg5003
F0.20214333748265156
saI69891
ass(S'EQUATION28'
p5008
g108
tp5009
(dp5010
(t(lp5011
(dp5012
S'false'
p5013
F0.59725
sS'true'
p5014
F0.40275
saI100000
ass(S'RApp4'
p5015
S'KNOWN8, SNode_11'
p5016
tp5017
(dp5018
(S'false'
p5019
S'true'
p5020
tp5021
(lp5022
(dp5023
S'false'
p5024
F1.0
sS'true'
p5025
F0.0
saI48536
as(S'true'
p5026
S'false'
p5027
tp5028
(lp5029
(dp5030
g5024
F1.0
sg5025
F0.0
saI1052
as(S'false'
p5031
S'false'
p5032
tp5033
(lp5034
(dp5035
g5024
F1.0
sg5025
F0.0
saI996
as(S'true'
p5036
S'true'
p5037
tp5038
(lp5039
(dp5040
g5024
F6.070908207867897e-05
sg5025
F0.9999392909179213
saI49416
ass(S'SNode_124'
p5041
S'SNode_37, GOAL_109, SNode_112, SNode_122, NEWTONS74'
p5042
tp5043
(dp5044
(S'false'
p5045
S'false'
p5046
S'false'
p5047
S'true'
p5048
S'false'
p5049
tp5050
(lp5051
(dp5052
S'false'
p5053
F0.9001266891891891
sS'true'
p5054
F0.09987331081081081
saI4736
as(S'true'
p5055
S'true'
p5056
S'false'
p5057
S'true'
p5058
S'true'
p5059
tp5060
(lp5061
(dp5062
g5053
F0.9221967963386728
sg5054
F0.07780320366132723
saI437
as(S'true'
p5063
S'true'
p5064
S'false'
p5065
S'false'
p5066
S'false'
p5067
tp5068
(lp5069
(dp5070
g5053
F0.9123456790123456
sg5054
F0.08765432098765433
saI810
as(S'true'
p5071
S'false'
p5072
S'true'
p5073
S'true'
p5074
S'true'
p5075
tp5076
(lp5077
(dp5078
g5053
F0.8951965065502183
sg5054
F0.10480349344978165
saI916
as(S'true'
p5079
S'true'
p5080
S'false'
p5081
S'false'
p5082
S'true'
p5083
tp5084
(lp5085
(dp5086
g5053
F0.8907168037602821
sg5054
F0.10928319623971798
saI851
as(S'false'
p5087
S'true'
p5088
S'true'
p5089
S'true'
p5090
S'true'
p5091
tp5092
(lp5093
(dp5094
g5053
F0.8959537572254336
sg5054
F0.10404624277456648
saI3460
as(S'false'
p5095
S'true'
p5096
S'false'
p5097
S'false'
p5098
S'true'
p5099
tp5100
(lp5101
(dp5102
g5053
F0.888560157790927
sg5054
F0.11143984220907298
saI2028
as(S'true'
p5103
S'true'
p5104
S'false'
p5105
S'true'
p5106
S'false'
p5107
tp5108
(lp5109
(dp5110
g5053
F0.9047619047619048
sg5054
F0.09523809523809523
saI483
as(S'false'
p5111
S'false'
p5112
S'true'
p5113
S'true'
p5114
S'false'
p5115
tp5116
(lp5117
(dp5118
g5053
F0.9108095007270964
sg5054
F0.08919049927290354
saI2063
as(S'false'
p5119
S'true'
p5120
S'true'
p5121
S'false'
p5122
S'true'
p5123
tp5124
(lp5125
(dp5126
g5053
F0.9041343669250645
sg5054
F0.0958656330749354
saI3870
as(S'false'
p5127
S'false'
p5128
S'true'
p5129
S'false'
p5130
S'true'
p5131
tp5132
(lp5133
(dp5134
g5053
F0.9048112816258814
sg5054
F0.09518871837411862
saI4822
as(S'true'
p5135
S'true'
p5136
S'true'
p5137
S'true'
p5138
S'false'
p5139
tp5140
(lp5141
(dp5142
g5053
F0.8964194373401535
sg5054
F0.10358056265984655
saI1564
as(S'false'
p5143
S'false'
p5144
S'true'
p5145
S'false'
p5146
S'false'
p5147
tp5148
(lp5149
(dp5150
g5053
F0.8957375679063937
sg5054
F0.10426243209360635
saI4786
as(S'true'
p5151
S'false'
p5152
S'true'
p5153
S'false'
p5154
S'false'
p5155
tp5156
(lp5157
(dp5158
g5053
F0.9012999518536351
sg5054
F0.09870004814636495
saI2077
as(S'true'
p5159
S'true'
p5160
S'true'
p5161
S'true'
p5162
S'true'
p5163
tp5164
(lp5165
(dp5166
g5053
F0.0
sg5054
F1.0
saI1493
as(S'false'
p5167
S'true'
p5168
S'false'
p5169
S'true'
p5170
S'false'
p5171
tp5172
(lp5173
(dp5174
g5053
F0.925
sg5054
F0.075
saI1080
as(S'true'
p5175
S'false'
p5176
S'false'
p5177
S'true'
p5178
S'true'
p5179
tp5180
(lp5181
(dp5182
g5053
F0.9053117782909931
sg5054
F0.09468822170900693
saI2165
as(S'true'
p5183
S'false'
p5184
S'true'
p5185
S'true'
p5186
S'false'
p5187
tp5188
(lp5189
(dp5190
g5053
F0.8984881209503239
sg5054
F0.10151187904967603
saI926
as(S'false'
p5191
S'false'
p5192
S'false'
p5193
S'false'
p5194
S'false'
p5195
tp5196
(lp5197
(dp5198
g5053
F0.9017313991576977
sg5054
F0.0982686008423023
saI12822
as(S'false'
p5199
S'true'
p5200
S'false'
p5201
S'true'
p5202
S'true'
p5203
tp5204
(lp5205
(dp5206
g5053
F0.8931297709923665
sg5054
F0.10687022900763359
saI1048
as(S'false'
p5207
S'true'
p5208
S'true'
p5209
S'false'
p5210
S'false'
p5211
tp5212
(lp5213
(dp5214
g5053
F0.9014429621562755
sg5054
F0.09855703784372448
saI3673
as(S'false'
p5215
S'false'
p5216
S'false'
p5217
S'false'
p5218
S'true'
p5219
tp5220
(lp5221
(dp5222
g5053
F0.8961394185683026
sg5054
F0.10386058143169741
saI12796
as(S'false'
p5223
S'false'
p5224
S'true'
p5225
S'true'
p5226
S'true'
p5227
tp5228
(lp5229
(dp5230
g5053
F0.9076034648700674
sg5054
F0.09239653512993262
saI2078
as(S'true'
p5231
S'false'
p5232
S'false'
p5233
S'false'
p5234
S'true'
p5235
tp5236
(lp5237
(dp5238
g5053
F0.9059494121838262
sg5054
F0.09405058781617386
saI5614
as(S'false'
p5239
S'true'
p5240
S'false'
p5241
S'false'
p5242
S'false'
p5243
tp5244
(lp5245
(dp5246
g5053
F0.8910891089108911
sg5054
F0.10891089108910891
saI1919
as(S'true'
p5247
S'false'
p5248
S'true'
p5249
S'false'
p5250
S'true'
p5251
tp5252
(lp5253
(dp5254
g5053
F0.8939679547596607
sg5054
F0.10603204524033931
saI2122
as(S'true'
p5255
S'true'
p5256
S'true'
p5257
S'false'
p5258
S'true'
p5259
tp5260
(lp5261
(dp5262
g5053
F0.8891468369123622
sg5054
F0.11085316308763785
saI1723
as(S'false'
p5263
S'false'
p5264
S'false'
p5265
S'true'
p5266
S'true'
p5267
tp5268
(lp5269
(dp5270
g5053
F0.9052499477096841
sg5054
F0.09475005229031583
saI4781
as(S'true'
p5271
S'true'
p5272
S'true'
p5273
S'false'
p5274
S'false'
p5275
tp5276
(lp5277
(dp5278
g5053
F0.8919392523364486
sg5054
F0.1080607476635514
saI1712
as(S'true'
p5279
S'false'
p5280
S'false'
p5281
S'true'
p5282
S'false'
p5283
tp5284
(lp5285
(dp5286
g5053
F0.8896039603960396
sg5054
F0.1103960396039604
saI2020
as(S'true'
p5287
S'false'
p5288
S'false'
p5289
S'false'
p5290
S'false'
p5291
tp5292
(lp5293
(dp5294
g5053
F0.9024477398606396
sg5054
F0.09755226013936037
saI5597
as(S'false'
p5295
S'true'
p5296
S'true'
p5297
S'true'
p5298
S'false'
p5299
tp5300
(lp5301
(dp5302
g5053
F0.893140589569161
sg5054
F0.106859410430839
saI3528
ass(S'SNode_11'
p5303
g108
tp5304
(dp5305
(t(lp5306
(dp5307
S'false'
p5308
F0.02048
sS'true'
p5309
F0.97952
saI100000
ass(S'SNode_27'
p5310
S'RApp3, RApp4'
p5311
tp5312
(dp5313
(S'false'
p5314
S'true'
p5315
tp5316
(lp5317
(dp5318
S'false'
p5319
F0.0
sS'true'
p5320
F1.0
saI40683
as(S'true'
p5321
S'false'
p5322
tp5323
(lp5324
(dp5325
g5319
F0.0
sg5320
F1.0
saI8763
as(S'false'
p5326
S'false'
p5327
tp5328
(lp5329
(dp5330
g5319
F0.8013580719204285
sg5320
F0.19864192807957154
saI41824
as(S'true'
p5331
S'true'
p5332
tp5333
(lp5334
(dp5335
g5319
F0.0
sg5320
F1.0
saI8730
ass(S'GOAL_110'
p5336
S'GOAL_109, GOAL65'
p5337
tp5338
(dp5339
(S'false'
p5340
S'true'
p5341
tp5342
(lp5343
(dp5344
S'false'
p5345
F0.8001585144927537
sS'true'
p5346
F0.19984148550724637
saI35328
as(S'true'
p5347
S'false'
p5348
tp5349
(lp5350
(dp5351
g5345
F0.7998113334680952
sg5346
F0.20018866653190487
saI14841
as(S'false'
p5352
S'false'
p5353
tp5354
(lp5355
(dp5356
g5345
F0.7989312148143914
sg5346
F0.20106878518560856
saI34993
as(S'true'
p5357
S'true'
p5358
tp5359
(lp5360
(dp5361
g5345
F0.0
sg5346
F1.0
saI14838
ass(S'TRY24'
p5362
S'TRY25'
p5363
tp5364
(dp5365
(S'true'
p5366
tp5367
(lp5368
(dp5369
S'false'
p5370
F0.0
sS'true'
p5371
F1.0
saI89951
as(S'false'
p5372
tp5373
(lp5374
(dp5375
g5370
F0.9497462434073042
sg5371
F0.05025375659269579
saI10049
ass(S'SNode_93'
p5376
S'GOAL_87, SNode_88, IDENTIFY55'
p5377
tp5378
(dp5379
(S'false'
p5380
S'false'
p5381
S'true'
p5382
tp5383
(lp5384
(dp5385
S'false'
p5386
F0.801668562760713
sS'true'
p5387
F0.19833143723928706
saI29007
as(S'true'
p5388
S'true'
p5389
S'true'
p5390
tp5391
(lp5392
(dp5393
g5386
F0.00011103708638685321
sg5387
F0.9998889629136132
saI9006
as(S'false'
p5394
S'true'
p5395
S'false'
p5396
tp5397
(lp5398
(dp5399
g5386
F0.7986577181208053
sg5387
F0.20134228187919462
saI3129
as(S'true'
p5400
S'true'
p5401
S'false'
p5402
tp5403
(lp5404
(dp5405
g5386
F0.8006332692525161
sg5387
F0.19936673074748387
saI8843
as(S'true'
p5406
S'false'
p5407
S'false'
p5408
tp5409
(lp5410
(dp5411
g5386
F0.7914480294741543
sg5387
F0.2085519705258457
saI8957
as(S'false'
p5412
S'false'
p5413
S'false'
p5414
tp5415
(lp5416
(dp5417
g5386
F0.7987945582917169
sg5387
F0.2012054417082831
saI29035
as(S'false'
p5418
S'true'
p5419
S'true'
p5420
tp5421
(lp5422
(dp5423
g5386
F0.797940797940798
sg5387
F0.20205920205920205
saI3108
as(S'true'
p5424
S'false'
p5425
S'true'
p5426
tp5427
(lp5428
(dp5429
g5386
F0.798429613011778
sg5387
F0.2015703869882221
saI8915
ass(S'KNOWN6'
p5430
g108
tp5431
(dp5432
(t(lp5433
(dp5434
S'false'
p5435
F0.50069
sS'true'
p5436
F0.49931
saI100000
ass(S'TRY14'
p5437
S'TRY12'
p5438
tp5439
(dp5440
(S'true'
p5441
tp5442
(lp5443
(dp5444
S'false'
p5445
F0.0
sS'true'
p5446
F1.0
saI30109
as(S'false'
p5447
tp5448
(lp5449
(dp5450
g5445
F0.8995292670014737
sg5446
F0.10047073299852628
saI69891
ass(S'HORIZ53'
p5451
S'NORMAL52'
p5452
tp5453
(dp5454
(S'true'
p5455
tp5456
(lp5457
(dp5458
S'false'
p5459
F0.0
sS'true'
p5460
F1.0
saI35217
as(S'false'
p5461
tp5462
(lp5463
(dp5464
g5459
F0.8017072380099718
sg5460
F0.19829276199002824
saI64783
ass(S'SNode_97'
p5465
S'GOAL_87, SNode_94, IDENTIFY55'
p5466
tp5467
(dp5468
(S'false'
p5469
S'false'
p5470
S'true'
p5471
tp5472
(lp5473
(dp5474
S'false'
p5475
F0.7978034161383085
sS'true'
p5476
F0.20219658386169143
saI28863
as(S'true'
p5477
S'true'
p5478
S'true'
p5479
tp5480
(lp5481
(dp5482
g5475
F0.0
sg5476
F1.0
saI11669
as(S'false'
p5483
S'true'
p5484
S'false'
p5485
tp5486
(lp5487
(dp5488
g5475
F0.7924107142857143
sg5476
F0.20758928571428573
saI3136
as(S'true'
p5489
S'true'
p5490
S'false'
p5491
tp5492
(lp5493
(dp5494
g5475
F0.8023265833692373
sg5476
F0.1976734166307626
saI11605
as(S'true'
p5495
S'false'
p5496
S'false'
p5497
tp5498
(lp5499
(dp5500
g5475
F0.803228410008071
sg5476
F0.19677158999192898
saI6195
as(S'false'
p5501
S'false'
p5502
S'false'
p5503
tp5504
(lp5505
(dp5506
g5475
F0.796058977538928
sg5476
F0.20394102246107207
saI29028
as(S'false'
p5507
S'true'
p5508
S'true'
p5509
tp5510
(lp5511
(dp5512
g5475
F0.7982779827798278
sg5476
F0.2017220172201722
saI3252
as(S'true'
p5513
S'false'
p5514
S'true'
p5515
tp5516
(lp5517
(dp5518
g5475
F0.7987843889955214
sg5476
F0.20121561100447857
saI6252
ass(S'DEFINE23'
p5519
g108
tp5520
(dp5521
(t(lp5522
(dp5523
S'false'
p5524
F0.4985
sS'true'
p5525
F0.5015
saI100000
ass(S'SNode_102'
p5526
S'GOAL_87, SNode_88, SNode_94, FORCE60'
p5527
tp5528
(dp5529
(S'true'
p5530
S'true'
p5531
S'true'
p5532
S'true'
p5533
tp5534
(lp5535
(dp5536
S'false'
p5537
F0.00010556317956296844
sS'true'
p5538
F0.999894436820437
saI9473
as(S'false'
p5539
S'true'
p5540
S'false'
p5541
S'false'
p5542
tp5543
(lp5544
(dp5545
g5537
F0.8955895589558955
sg5538
F0.10441044104410441
saI1111
as(S'true'
p5546
S'false'
p5547
S'false'
p5548
S'false'
p5549
tp5550
(lp5551
(dp5552
g5537
F0.9178861788617886
sg5538
F0.08211382113821138
saI1230
as(S'true'
p5553
S'false'
p5554
S'true'
p5555
S'false'
p5556
tp5557
(lp5558
(dp5559
g5537
F0.9021039072563332
sg5538
F0.09789609274366681
saI2329
as(S'false'
p5560
S'true'
p5561
S'false'
p5562
S'true'
p5563
tp5564
(lp5565
(dp5566
g5537
F0.8956019546868058
sg5538
F0.10439804531319413
saI4502
as(S'true'
p5567
S'true'
p5568
S'true'
p5569
S'false'
p5570
tp5571
(lp5572
(dp5573
g5537
F0.8968932913102207
sg5538
F0.10310670868977938
saI2221
as(S'true'
p5574
S'false'
p5575
S'true'
p5576
S'true'
p5577
tp5578
(lp5579
(dp5580
g5537
F0.8946059885417793
sg5538
F0.10539401145822073
saI9251
as(S'true'
p5581
S'true'
p5582
S'false'
p5583
S'true'
p5584
tp5585
(lp5586
(dp5587
g5537
F0.9003039513677812
sg5538
F0.09969604863221884
saI4935
as(S'false'
p5588
S'false'
p5589
S'false'
p5590
S'true'
p5591
tp5592
(lp5593
(dp5594
g5537
F0.902292929534945
sg5538
F0.09770707046505499
saI41737
as(S'false'
p5595
S'true'
p5596
S'true'
p5597
S'false'
p5598
tp5599
(lp5600
(dp5601
g5537
F0.8805970149253731
sg5538
F0.11940298507462686
saI134
as(S'false'
p5602
S'false'
p5603
S'true'
p5604
S'false'
p5605
tp5606
(lp5607
(dp5608
g5537
F0.8942390369733448
sg5538
F0.1057609630266552
saI1163
as(S'false'
p5609
S'true'
p5610
S'true'
p5611
S'true'
p5612
tp5613
(lp5614
(dp5615
g5537
F0.9183673469387755
sg5538
F0.08163265306122448
saI490
as(S'true'
p5616
S'false'
p5617
S'false'
p5618
S'true'
p5619
tp5620
(lp5621
(dp5622
g5537
F0.899446858949032
sg5538
F0.10055314105096799
saI5062
as(S'false'
p5623
S'false'
p5624
S'false'
p5625
S'false'
p5626
tp5627
(lp5628
(dp5629
g5537
F0.9010530310217247
sg5538
F0.0989469689782753
saI10541
as(S'true'
p5630
S'true'
p5631
S'false'
p5632
S'false'
p5633
tp5634
(lp5635
(dp5636
g5537
F0.8926229508196721
sg5538
F0.10737704918032787
saI1220
as(S'false'
p5637
S'false'
p5638
S'true'
p5639
S'true'
p5640
tp5641
(lp5642
(dp5643
g5537
F0.9002390784612041
sg5538
F0.09976092153879591
saI4601
ass(S'SNode_38'
p5644
S'SNode_37, VAR20'
p5645
tp5646
(dp5647
(S'false'
p5648
S'true'
p5649
tp5650
(lp5651
(dp5652
S'false'
p5653
F0.8017486741609845
sS'true'
p5654
F0.1982513258390155
saI48837
as(S'true'
p5655
S'false'
p5656
tp5657
(lp5658
(dp5659
g5653
F0.794634093139928
sg5654
F0.20536590686007197
saI9169
as(S'false'
p5660
S'false'
p5661
tp5662
(lp5663
(dp5664
g5653
F0.7974144192127052
sg5654
F0.20258558078729483
saI20653
as(S'true'
p5665
S'true'
p5666
tp5667
(lp5668
(dp5669
g5653
F0.00014057448104587414
sg5654
F0.9998594255189541
saI21341
ass(S'SNode_8'
p5670
S'RApp1, RApp2'
p5671
tp5672
(dp5673
(S'false'
p5674
S'true'
p5675
tp5676
(lp5677
(dp5678
S'false'
p5679
F0.0
sS'true'
p5680
F1.0
saI50017
as(S'true'
p5681
S'false'
p5682
tp5683
(lp5684
(dp5685
g5679
F0.0
sg5680
F1.0
saI978
as(S'false'
p5686
S'false'
p5687
tp5688
(lp5689
(dp5690
g5679
F0.8260056127221702
sg5680
F0.17399438727782976
saI1069
as(S'true'
p5691
S'true'
p5692
tp5693
(lp5694
(dp5695
g5679
F0.0
sg5680
F1.0
saI47936
ass(S'SYSTEM46'
p5696
g108
tp5697
(dp5698
(t(lp5699
(dp5700
S'false'
p5701
F0.4984
sS'true'
p5702
F0.5016
saI100000
ass(S'GOAL_147'
p5703
S'RApp11, RApp12, RApp13'
p5704
tp5705
(dp5706
(S'false'
p5707
S'false'
p5708
S'true'
p5709
tp5710
(lp5711
(dp5712
S'false'
p5713
F0.0
sS'true'
p5714
F1.0
saI7372
as(S'true'
p5715
S'true'
p5716
S'true'
p5717
tp5718
(lp5719
(dp5720
g5713
F0.0
sg5714
F1.0
saI221
as(S'false'
p5721
S'true'
p5722
S'false'
p5723
tp5724
(lp5725
(dp5726
g5713
F0.0
sg5714
F1.0
saI8315
as(S'true'
p5727
S'true'
p5728
S'false'
p5729
tp5730
(lp5731
(dp5732
g5713
F0.0
sg5714
F1.0
saI831
as(S'true'
p5733
S'false'
p5734
S'false'
p5735
tp5736
(lp5737
(dp5738
g5713
F0.0
sg5714
F1.0
saI7559
as(S'false'
p5739
S'false'
p5740
S'false'
p5741
tp5742
(lp5743
(dp5744
g5713
F0.7996870324360681
sg5714
F0.20031296756393185
saI72851
as(S'false'
p5745
S'true'
p5746
S'true'
p5747
tp5748
(lp5749
(dp5750
g5713
F0.0
sg5714
F1.0
saI835
as(S'true'
p5751
S'false'
p5752
S'true'
p5753
tp5754
(lp5755
(dp5756
g5713
F0.0
sg5714
F1.0
saI2016
ass(S'GOAL_99'
p5757
S'GOAL_98, FIND58'
p5758
tp5759
(dp5760
(S'false'
p5761
S'true'
p5762
tp5763
(lp5764
(dp5765
S'false'
p5766
F0.7954856986201224
sS'true'
p5767
F0.20451430137987756
saI21886
as(S'true'
p5768
S'false'
p5769
tp5770
(lp5771
(dp5772
g5766
F0.7964702688026065
sg5767
F0.20352973119739343
saI18415
as(S'false'
p5773
S'false'
p5774
tp5775
(lp5776
(dp5777
g5766
F0.8006777691711852
sg5767
F0.19932223082881487
saI51640
as(S'true'
p5778
S'true'
p5779
tp5780
(lp5781
(dp5782
g5766
F0.0
sg5767
F1.0
saI8059
ass(S'NEED36'
p5783
g108
tp5784
(dp5785
(t(lp5786
(dp5787
S'false'
p5788
F0.5018
sS'true'
p5789
F0.4982
saI100000
ass(S'SNode_125'
p5790
S'GOAL_109, SNode_112, SUM75'
p5791
tp5792
(dp5793
(S'false'
p5794
S'false'
p5795
S'true'
p5796
tp5797
(lp5798
(dp5799
S'false'
p5800
F0.9014670896114195
sS'true'
p5801
F0.09853291038858049
saI25220
as(S'true'
p5802
S'true'
p5803
S'true'
p5804
tp5805
(lp5806
(dp5807
g5800
F9.462528387585163e-05
sg5801
F0.9999053747161242
saI10568
as(S'false'
p5808
S'true'
p5809
S'false'
p5810
tp5811
(lp5812
(dp5813
g5800
F0.9013914095583787
sg5801
F0.09860859044162129
saI9918
as(S'true'
p5814
S'true'
p5815
S'false'
p5816
tp5817
(lp5818
(dp5819
g5800
F0.8950741272118603
sg5801
F0.10492587278813964
saI10455
as(S'true'
p5820
S'false'
p5821
S'false'
p5822
tp5823
(lp5824
(dp5825
g5800
F0.8975119835653961
sg5801
F0.10248801643460397
saI4381
as(S'false'
p5826
S'false'
p5827
S'false'
p5828
tp5829
(lp5830
(dp5831
g5800
F0.8981865592035083
sg5801
F0.10181344079649164
saI25311
as(S'false'
p5832
S'true'
p5833
S'true'
p5834
tp5835
(lp5836
(dp5837
g5800
F0.9011345218800648
sg5801
F0.09886547811993517
saI9872
as(S'true'
p5838
S'false'
p5839
S'true'
p5840
tp5841
(lp5842
(dp5843
g5800
F0.896140350877193
sg5801
F0.10385964912280701
saI4275
ass(S'SNode_33'
p5844
S'SNode_10, GIVEN21'
p5845
tp5846
(dp5847
(S'false'
p5848
S'true'
p5849
tp5850
(lp5851
(dp5852
S'false'
p5853
F0.9014557670772676
sS'true'
p5854
F0.09854423292273236
saI1786
as(S'true'
p5855
S'false'
p5856
tp5857
(lp5858
(dp5859
g5853
F0.9029698942229455
sg5854
F0.09703010577705451
saI9832
as(S'false'
p5860
S'false'
p5861
tp5862
(lp5863
(dp5864
g5853
F0.8840579710144928
sg5854
F0.11594202898550725
saI207
as(S'true'
p5865
S'true'
p5866
tp5867
(lp5868
(dp5869
g5853
F9.072866458746811e-05
sg5854
F0.9999092713354125
saI88175
ass(S'IDENTIFY55'
p5870
g108
tp5871
(dp5872
(t(lp5873
(dp5874
S'false'
p5875
F0.49964
sS'true'
p5876
F0.50036
saI100000
ass(S'SNode_115'
p5877
S'GOAL_114, NEED36'
p5878
tp5879
(dp5880
(S'false'
p5881
S'true'
p5882
tp5883
(lp5884
(dp5885
S'false'
p5886
F0.7978841038821315
sS'true'
p5887
F0.20211589611786857
saI33461
as(S'true'
p5888
S'false'
p5889
tp5890
(lp5891
(dp5892
g5886
F0.797270955165692
sg5887
F0.20272904483430798
saI16416
as(S'false'
p5893
S'false'
p5894
tp5895
(lp5896
(dp5897
g5886
F0.8026004027958773
sg5887
F0.19739959720412273
saI33764
as(S'true'
p5898
S'true'
p5899
tp5900
(lp5901
(dp5902
g5886
F6.112843083318051e-05
sg5887
F0.9999388715691668
saI16359
ass(S'SNode_154'
p5903
S'GOAL_121, NEED36'
p5904
tp5905
(dp5906
(S'false'
p5907
S'true'
p5908
tp5909
(lp5910
(dp5911
S'false'
p5912
F0.7980695436566503
sS'true'
p5913
F0.20193045634334966
saI33878
as(S'true'
p5914
S'false'
p5915
tp5916
(lp5917
(dp5918
g5912
F0.803448275862069
sg5913
F0.19655172413793104
saI15950
as(S'false'
p5919
S'false'
p5920
tp5921
(lp5922
(dp5923
g5912
F0.7988898626935437
sg5913
F0.20111013730645633
saI34230
as(S'true'
p5924
S'true'
p5925
tp5926
(lp5927
(dp5928
g5912
F0.00012545477355413375
sg5913
F0.9998745452264459
saI15942
ass(S'GOAL_150'
p5929
S'SNode_20, SNode_37, GOAL_149, APPLY77'
p5930
tp5931
(dp5932
(S'true'
p5933
S'true'
p5934
S'true'
p5935
S'true'
p5936
tp5937
(lp5938
(dp5939
S'false'
p5940
F0.0005028916268544129
sS'true'
p5941
F0.9994971083731455
saI3977
as(S'false'
p5942
S'true'
p5943
S'false'
p5944
S'false'
p5945
tp5946
(lp5947
(dp5948
g5940
F0.7954414310444317
sg5941
F0.20455856895556837
saI3466
as(S'true'
p5949
S'false'
p5950
S'false'
p5951
S'false'
p5952
tp5953
(lp5954
(dp5955
g5940
F0.8003541389995573
sg5941
F0.19964586100044268
saI11295
as(S'true'
p5956
S'false'
p5957
S'true'
p5958
S'false'
p5959
tp5960
(lp5961
(dp5962
g5940
F0.7995637949836423
sg5941
F0.2004362050163577
saI9170
as(S'false'
p5963
S'true'
p5964
S'false'
p5965
S'true'
p5966
tp5967
(lp5968
(dp5969
g5940
F0.7983894161633592
sg5941
F0.2016105838366408
saI3477
as(S'true'
p5970
S'true'
p5971
S'true'
p5972
S'false'
p5973
tp5974
(lp5975
(dp5976
g5940
F0.8074398249452954
sg5941
F0.1925601750547046
saI4113
as(S'true'
p5977
S'false'
p5978
S'true'
p5979
S'true'
p5980
tp5981
(lp5982
(dp5983
g5940
F0.8009993482511406
sg5941
F0.19900065174885945
saI9206
as(S'true'
p5984
S'true'
p5985
S'false'
p5986
S'true'
p5987
tp5988
(lp5989
(dp5990
g5940
F0.7995585874799358
sg5941
F0.2004414125200642
saI4984
as(S'false'
p5991
S'false'
p5992
S'false'
p5993
S'true'
p5994
tp5995
(lp5996
(dp5997
g5940
F0.7997950557192264
sg5941
F0.20020494428077368
saI7807
as(S'false'
p5998
S'true'
p5999
S'true'
p6000
S'false'
p6001
tp6002
(lp6003
(dp6004
g5940
F0.8039985719385934
sg5941
F0.19600142806140664
saI2801
as(S'false'
p6005
S'false'
p6006
S'true'
p6007
S'false'
p6008
tp6009
(lp6010
(dp6011
g5940
F0.7994255624700813
sg5941
F0.20057443752991863
saI6267
as(S'false'
p6012
S'true'
p6013
S'true'
p6014
S'true'
p6015
tp6016
(lp6017
(dp6018
g5940
F0.8032963095664636
sg5941
F0.19670369043353636
saI2791
as(S'true'
p6019
S'false'
p6020
S'false'
p6021
S'true'
p6022
tp6023
(lp6024
(dp6025
g5940
F0.7955974842767296
sg5941
F0.20440251572327045
saI11448
as(S'false'
p6026
S'false'
p6027
S'false'
p6028
S'false'
p6029
tp6030
(lp6031
(dp6032
g5940
F0.8032972564812484
sg5941
F0.19670274351875158
saI7946
as(S'true'
p6033
S'true'
p6034
S'false'
p6035
S'false'
p6036
tp6037
(lp6038
(dp6039
g5940
F0.8014690879412365
sg5941
F0.19853091205876353
saI4901
as(S'false'
p6040
S'false'
p6041
S'true'
p6042
S'true'
p6043
tp6044
(lp6045
(dp6046
g5940
F0.8008187686978429
sg5941
F0.19918123130215715
saI6351
ass(S'RApp2'
p6047
S'GIVEN_1'
p6048
tp6049
(dp6050
(S'true'
p6051
tp6052
(lp6053
(dp6054
S'false'
p6055
F6.125011484396534e-05
sS'true'
p6056
F0.9999387498851561
saI97959
as(S'false'
p6057
tp6058
(lp6059
(dp6060
g6055
F1.0
sg6056
F0.0
saI2041
ass(S'SNode_88'
p6061
S'SNode_25, GOAL_87, NORMAL50'
p6062
tp6063
(dp6064
(S'false'
p6065
S'false'
p6066
S'true'
p6067
tp6068
(lp6069
(dp6070
S'false'
p6071
F0.8942718723282986
sS'true'
p6072
F0.10572812767170134
saI3509
as(S'true'
p6073
S'true'
p6074
S'true'
p6075
tp6076
(lp6077
(dp6078
g6071
F6.316720358789716e-05
sg6072
F0.9999368327964121
saI15831
as(S'false'
p6079
S'true'
p6080
S'false'
p6081
tp6082
(lp6083
(dp6084
g6071
F0.8861490031479539
sg6072
F0.11385099685204617
saI1906
as(S'true'
p6085
S'true'
p6086
S'false'
p6087
tp6088
(lp6089
(dp6090
g6071
F0.8994340444057466
sg6072
F0.10056595559425337
saI16079
as(S'true'
p6091
S'false'
p6092
S'false'
p6093
tp6094
(lp6095
(dp6096
g6071
F0.9043653272260392
sg6072
F0.09563467277396072
saI28818
as(S'false'
p6097
S'false'
p6098
S'false'
p6099
tp6100
(lp6101
(dp6102
g6071
F0.9008474576271186
sg6072
F0.09915254237288136
saI3540
as(S'false'
p6103
S'true'
p6104
S'true'
p6105
tp6106
(lp6107
(dp6108
g6071
F0.9028871391076115
sg6072
F0.09711286089238845
saI1905
as(S'true'
p6109
S'false'
p6110
S'true'
p6111
tp6112
(lp6113
(dp6114
g6071
F0.9028931437420809
sg6072
F0.09710685625791919
saI28412
ass(S'WEIGHT57'
p6115
g108
tp6116
(dp6117
(t(lp6118
(dp6119
S'false'
p6120
F0.30205
sS'true'
p6121
F0.69795
saI100000
ass(S'GOAL_57'
p6122
S'GOAL_56, CHOOSE35'
p6123
tp6124
(dp6125
(S'false'
p6126
S'true'
p6127
tp6128
(lp6129
(dp6130
S'false'
p6131
F0.7995980707395498
sS'true'
p6132
F0.20040192926045017
saI37320
as(S'true'
p6133
S'false'
p6134
tp6135
(lp6136
(dp6137
g6131
F0.7968108986763681
sg6132
F0.20318910132363185
saI12919
as(S'false'
p6138
S'false'
p6139
tp6140
(lp6141
(dp6142
g6131
F0.7985277860166635
sg6132
F0.20147221398333648
saI37087
as(S'true'
p6143
S'true'
p6144
tp6145
(lp6146
(dp6147
g6131
F0.00015780337699226762
sg6132
F0.9998421966230078
saI12674
ass(S'DISPLACEM0'
p6148
g108
tp6149
(dp6150
(t(lp6151
(dp6152
S'false'
p6153
F0.50086
sS'true'
p6154
F0.49914
saI100000
ass(S'SNode_9'
p6155
g108
tp6156
(dp6157
(t(lp6158
(dp6159
S'false'
p6160
F0.0198
sS'true'
p6161
F0.9802
saI100000
ass(S'SNode_6'
p6162
g108
tp6163
(dp6164
(t(lp6165
(dp6166
S'false'
p6167
F0.02005
sS'true'
p6168
F0.97995
saI100000
ass(S'TRY11'
p6169
S'TRY12'
p6170
tp6171
(dp6172
(S'true'
p6173
tp6174
(lp6175
(dp6176
S'false'
p6177
F0.0
sS'true'
p6178
F1.0
saI30109
as(S'false'
p6179
tp6180
(lp6181
(dp6182
g6177
F0.7993160778927186
sg6178
F0.20068392210728134
saI69891
ass(S'GOAL_83'
p6183
S'GOAL_81, TRY24'
p6184
tp6185
(dp6186
(S'false'
p6187
S'true'
p6188
tp6189
(lp6190
(dp6191
S'false'
p6192
F0.8013370865587615
sS'true'
p6193
F0.19866291344123857
saI56840
as(S'true'
p6194
S'false'
p6195
tp6196
(lp6197
(dp6198
g6192
F0.796714007240323
sg6193
F0.20328599275967696
saI3591
as(S'false'
p6199
S'false'
p6200
tp6201
(lp6202
(dp6203
g6192
F0.7965731563917352
sg6193
F0.20342684360826474
saI5953
as(S'true'
p6204
S'true'
p6205
tp6206
(lp6207
(dp6208
g6192
F5.949547834364588e-05
sg6193
F0.9999405045216564
saI33616
ass(S'RESOLVE38'
p6209
g108
tp6210
(dp6211
(t(lp6212
(dp6213
S'false'
p6214
F0.49851
sS'true'
p6215
F0.50149
saI100000
ass(S'SNode_134'
p6216
S'SNode_91, SNode_93, GOAL_129, SNode_133, VECTOR73'
p6217
tp6218
(dp6219
(S'false'
p6220
S'false'
p6221
S'false'
p6222
S'true'
p6223
S'false'
p6224
tp6225
(lp6226
(dp6227
S'false'
p6228
F0.8926299045599152
sS'true'
p6229
F0.10737009544008484
saI3772
as(S'true'
p6230
S'true'
p6231
S'false'
p6232
S'true'
p6233
S'true'
p6234
tp6235
(lp6236
(dp6237
g6228
F0.8945233265720081
sg6229
F0.10547667342799188
saI493
as(S'true'
p6238
S'true'
p6239
S'false'
p6240
S'false'
p6241
S'false'
p6242
tp6243
(lp6244
(dp6245
g6228
F0.8983675618746709
sg6229
F0.10163243812532911
saI1899
as(S'true'
p6246
S'false'
p6247
S'true'
p6248
S'true'
p6249
S'true'
p6250
tp6251
(lp6252
(dp6253
g6228
F0.905982905982906
sg6229
F0.09401709401709402
saI1521
as(S'true'
p6254
S'true'
p6255
S'false'
p6256
S'false'
p6257
S'true'
p6258
tp6259
(lp6260
(dp6261
g6228
F0.9004665629860031
sg6229
F0.09953343701399689
saI1929
as(S'false'
p6262
S'true'
p6263
S'true'
p6264
S'true'
p6265
S'true'
p6266
tp6267
(lp6268
(dp6269
g6228
F0.9038961038961039
sg6229
F0.09610389610389611
saI1925
as(S'false'
p6270
S'true'
p6271
S'false'
p6272
S'false'
p6273
S'true'
p6274
tp6275
(lp6276
(dp6277
g6228
F0.895090909090909
sg6229
F0.10490909090909091
saI5500
as(S'true'
p6278
S'true'
p6279
S'false'
p6280
S'true'
p6281
S'false'
p6282
tp6283
(lp6284
(dp6285
g6228
F0.8854625550660793
sg6229
F0.1145374449339207
saI454
as(S'false'
p6286
S'false'
p6287
S'true'
p6288
S'true'
p6289
S'false'
p6290
tp6291
(lp6292
(dp6293
g6228
F0.8992052023121387
sg6229
F0.10079479768786127
saI5536
as(S'false'
p6294
S'true'
p6295
S'true'
p6296
S'false'
p6297
S'true'
p6298
tp6299
(lp6300
(dp6301
g6228
F0.9049773755656109
sg6229
F0.09502262443438914
saI1326
as(S'false'
p6302
S'false'
p6303
S'true'
p6304
S'false'
p6305
S'true'
p6306
tp6307
(lp6308
(dp6309
g6228
F0.8978082191780822
sg6229
F0.10219178082191781
saI3650
as(S'true'
p6310
S'true'
p6311
S'true'
p6312
S'true'
p6313
S'false'
p6314
tp6315
(lp6316
(dp6317
g6228
F0.903448275862069
sg6229
F0.09655172413793103
saI725
as(S'false'
p6318
S'false'
p6319
S'true'
p6320
S'false'
p6321
S'false'
p6322
tp6323
(lp6324
(dp6325
g6228
F0.9058105598301937
sg6229
F0.09418944016980632
saI3769
as(S'true'
p6326
S'false'
p6327
S'true'
p6328
S'false'
p6329
S'false'
p6330
tp6331
(lp6332
(dp6333
g6228
F0.905123339658444
sg6229
F0.09487666034155598
saI1054
as(S'true'
p6334
S'true'
p6335
S'true'
p6336
S'true'
p6337
S'true'
p6338
tp6339
(lp6340
(dp6341
g6228
F0.0
sg6229
F1.0
saI665
as(S'false'
p6342
S'true'
p6343
S'false'
p6344
S'true'
p6345
S'false'
p6346
tp6347
(lp6348
(dp6349
g6228
F0.8924652523774689
sg6229
F0.1075347476225311
saI1367
as(S'true'
p6350
S'false'
p6351
S'false'
p6352
S'true'
p6353
S'true'
p6354
tp6355
(lp6356
(dp6357
g6228
F0.881981981981982
sg6229
F0.11801801801801802
saI1110
as(S'true'
p6358
S'false'
p6359
S'true'
p6360
S'true'
p6361
S'false'
p6362
tp6363
(lp6364
(dp6365
g6228
F0.9042357274401474
sg6229
F0.09576427255985268
saI1629
as(S'false'
p6366
S'false'
p6367
S'false'
p6368
S'false'
p6369
S'false'
p6370
tp6371
(lp6372
(dp6373
g6228
F0.8974813065722157
sg6229
F0.10251869342778434
saI15246
as(S'false'
p6374
S'true'
p6375
S'false'
p6376
S'true'
p6377
S'true'
p6378
tp6379
(lp6380
(dp6381
g6228
F0.8980190755685987
sg6229
F0.10198092443140132
saI1363
as(S'false'
p6382
S'true'
p6383
S'true'
p6384
S'false'
p6385
S'false'
p6386
tp6387
(lp6388
(dp6389
g6228
F0.8910355486862442
sg6229
F0.10896445131375579
saI1294
as(S'false'
p6390
S'false'
p6391
S'false'
p6392
S'false'
p6393
S'true'
p6394
tp6395
(lp6396
(dp6397
g6228
F0.902602523659306
sg6229
F0.09739747634069401
saI15216
as(S'false'
p6398
S'false'
p6399
S'true'
p6400
S'true'
p6401
S'true'
p6402
tp6403
(lp6404
(dp6405
g6228
F0.9044472227183425
sg6229
F0.09555277728165744
saI5599
as(S'true'
p6406
S'false'
p6407
S'false'
p6408
S'false'
p6409
S'true'
p6410
tp6411
(lp6412
(dp6413
g6228
F0.8961009174311927
sg6229
F0.10389908256880734
saI4360
as(S'false'
p6414
S'true'
p6415
S'false'
p6416
S'false'
p6417
S'false'
p6418
tp6419
(lp6420
(dp6421
g6228
F0.9034621725590768
sg6229
F0.09653782744092325
saI5459
as(S'true'
p6422
S'false'
p6423
S'true'
p6424
S'false'
p6425
S'true'
p6426
tp6427
(lp6428
(dp6429
g6228
F0.9040697674418605
sg6229
F0.09593023255813954
saI1032
as(S'true'
p6430
S'true'
p6431
S'true'
p6432
S'false'
p6433
S'true'
p6434
tp6435
(lp6436
(dp6437
g6228
F0.9031531531531531
sg6229
F0.09684684684684684
saI444
as(S'false'
p6438
S'false'
p6439
S'false'
p6440
S'true'
p6441
S'true'
p6442
tp6443
(lp6444
(dp6445
g6228
F0.9056203605514316
sg6229
F0.09437963944856839
saI3772
as(S'true'
p6446
S'true'
p6447
S'true'
p6448
S'false'
p6449
S'false'
p6450
tp6451
(lp6452
(dp6453
g6228
F0.9075829383886256
sg6229
F0.0924170616113744
saI422
as(S'true'
p6454
S'false'
p6455
S'false'
p6456
S'true'
p6457
S'false'
p6458
tp6459
(lp6460
(dp6461
g6228
F0.90150842945874
sg6229
F0.09849157054125998
saI1127
as(S'true'
p6462
S'false'
p6463
S'false'
p6464
S'false'
p6465
S'false'
p6466
tp6467
(lp6468
(dp6469
g6228
F0.8986345753297847
sg6229
F0.10136542467021523
saI4321
as(S'false'
p6470
S'true'
p6471
S'true'
p6472
S'true'
p6473
S'false'
p6474
tp6475
(lp6476
(dp6477
g6228
F0.8941118258287977
sg6229
F0.10588817417120237
saI2021
ass(S'WRITE64'
p6478
g108
tp6479
(dp6480
(t(lp6481
(dp6482
S'false'
p6483
F0.4993
sS'true'
p6484
F0.5007
saI100000
ass(S'APPLY61'
p6485
g108
tp6486
(dp6487
(t(lp6488
(dp6489
S'false'
p6490
F0.50014
sS'true'
p6491
F0.49986
saI100000
ass(S'SNode_15'
p6492
g108
tp6493
(dp6494
(t(lp6495
(dp6496
S'false'
p6497
F0.02017
sS'true'
p6498
F0.97983
saI100000
ass(S'GOAL_81'
p6499
S'RApp5, RApp6'
p6500
tp6501
(dp6502
(S'false'
p6503
S'true'
p6504
tp6505
(lp6506
(dp6507
S'false'
p6508
F0.0
sS'true'
p6509
F1.0
saI11138
as(S'true'
p6510
S'false'
p6511
tp6512
(lp6513
(dp6514
g6508
F0.0
sg6509
F1.0
saI8919
as(S'false'
p6515
S'false'
p6516
tp6517
(lp6518
(dp6519
g6508
F0.7995645198258079
sg6509
F0.20043548017419208
saI78534
as(S'true'
p6520
S'true'
p6521
tp6522
(lp6523
(dp6524
g6508
F0.0
sg6509
F1.0
saI1409
ass(S'RApp5'
p6525
S'VECTOR27, GOAL_79'
p6526
tp6527
(dp6528
(S'false'
p6529
S'true'
p6530
tp6531
(lp6532
(dp6533
S'false'
p6534
F1.0
sS'true'
p6535
F0.0
saI10162
as(S'true'
p6536
S'false'
p6537
tp6538
(lp6539
(dp6540
g6534
F1.0
sg6535
F0.0
saI39861
as(S'false'
p6541
S'false'
p6542
tp6543
(lp6544
(dp6545
g6534
F1.0
sg6535
F0.0
saI39647
as(S'true'
p6546
S'true'
p6547
tp6548
(lp6549
(dp6550
g6534
F0.0001936108422071636
sg6535
F0.9998063891577929
saI10330
ass(S'IDENTIFY9'
p6551
g108
tp6552
(dp6553
(t(lp6554
(dp6555
S'false'
p6556
F0.50101
sS'true'
p6557
F0.49899
saI100000
ass(S'SNode_128'
p6558
S'RApp9, RApp10'
p6559
tp6560
(dp6561
(S'false'
p6562
S'true'
p6563
tp6564
(lp6565
(dp6566
S'false'
p6567
F0.0
sS'true'
p6568
F1.0
saI10698
as(S'true'
p6569
S'false'
p6570
tp6571
(lp6572
(dp6573
g6567
F0.0
sg6568
F1.0
saI11167
as(S'false'
p6574
S'false'
p6575
tp6576
(lp6577
(dp6578
g6567
F0.8019061227791109
sg6568
F0.19809387722088917
saI74182
as(S'true'
p6579
S'true'
p6580
tp6581
(lp6582
(dp6583
g6567
F0.0
sg6568
F1.0
saI3953
ass(S'SNode_75'
p6584
S'SNode_4, GOAL_72, SNode_73, VECTOR44'
p6585
tp6586
(dp6587
(S'true'
p6588
S'true'
p6589
S'true'
p6590
S'true'
p6591
tp6592
(lp6593
(dp6594
S'false'
p6595
F0.0
sS'true'
p6596
F1.0
saI6828
as(S'false'
p6597
S'true'
p6598
S'false'
p6599
S'false'
p6600
tp6601
(lp6602
(dp6603
g6595
F0.9
sg6596
F0.1
saI100
as(S'true'
p6604
S'false'
p6605
S'false'
p6606
S'false'
p6607
tp6608
(lp6609
(dp6610
g6595
F0.902000397429953
sg6596
F0.09799960257004703
saI30194
as(S'true'
p6611
S'false'
p6612
S'true'
p6613
S'false'
p6614
tp6615
(lp6616
(dp6617
g6595
F0.9029585798816568
sg6596
F0.0970414201183432
saI7605
as(S'false'
p6618
S'true'
p6619
S'false'
p6620
S'true'
p6621
tp6622
(lp6623
(dp6624
g6595
F0.8651685393258427
sg6596
F0.1348314606741573
saI89
as(S'true'
p6625
S'true'
p6626
S'true'
p6627
S'false'
p6628
tp6629
(lp6630
(dp6631
g6595
F0.9047690461907618
sg6596
F0.09523095380923816
saI6668
as(S'true'
p6632
S'false'
p6633
S'true'
p6634
S'true'
p6635
tp6636
(lp6637
(dp6638
g6595
F0.8979158369839373
sg6596
F0.10208416301606266
saI7533
as(S'true'
p6639
S'true'
p6640
S'false'
p6641
S'true'
p6642
tp6643
(lp6644
(dp6645
g6595
F0.8968957871396895
sg6596
F0.10310421286031042
saI4510
as(S'false'
p6646
S'false'
p6647
S'false'
p6648
S'true'
p6649
tp6650
(lp6651
(dp6652
g6595
F0.9032258064516129
sg6596
F0.0967741935483871
saI620
as(S'false'
p6653
S'true'
p6654
S'true'
p6655
S'false'
p6656
tp6657
(lp6658
(dp6659
g6595
F0.8467741935483871
sg6596
F0.1532258064516129
saI124
as(S'false'
p6660
S'false'
p6661
S'true'
p6662
S'false'
p6663
tp6664
(lp6665
(dp6666
g6595
F0.9115646258503401
sg6596
F0.08843537414965986
saI147
as(S'false'
p6667
S'true'
p6668
S'true'
p6669
S'true'
p6670
tp6671
(lp6672
(dp6673
g6595
F0.917910447761194
sg6596
F0.08208955223880597
saI134
as(S'true'
p6674
S'false'
p6675
S'false'
p6676
S'true'
p6677
tp6678
(lp6679
(dp6680
g6595
F0.8993884198630593
sg6596
F0.10061158013694077
saI30086
as(S'false'
p6681
S'false'
p6682
S'false'
p6683
S'false'
p6684
tp6685
(lp6686
(dp6687
g6595
F0.8935483870967742
sg6596
F0.1064516129032258
saI620
as(S'true'
p6688
S'true'
p6689
S'false'
p6690
S'false'
p6691
tp6692
(lp6693
(dp6694
g6595
F0.9024390243902439
sg6596
F0.0975609756097561
saI4592
as(S'false'
p6695
S'false'
p6696
S'true'
p6697
S'true'
p6698
tp6699
(lp6700
(dp6701
g6595
F0.9266666666666666
sg6596
F0.07333333333333333
saI150
ass(S'GOAL_107'
p6702
S'GOAL_103, SNode_152, WRITE63'
p6703
tp6704
(dp6705
(S'false'
p6706
S'false'
p6707
S'true'
p6708
tp6709
(lp6710
(dp6711
S'false'
p6712
F0.8039000968706567
sS'true'
p6713
F0.1960999031293434
saI23743
as(S'true'
p6714
S'true'
p6715
S'true'
p6716
tp6717
(lp6718
(dp6719
g6712
F0.00034904013961605586
sg6713
F0.999650959860384
saI5730
as(S'false'
p6720
S'true'
p6721
S'false'
p6722
tp6723
(lp6724
(dp6725
g6712
F0.8052529987591341
sg6713
F0.19474700124086586
saI14506
as(S'true'
p6726
S'true'
p6727
S'false'
p6728
tp6729
(lp6730
(dp6731
g6712
F0.7957446808510639
sg6713
F0.20425531914893616
saI5640
as(S'true'
p6732
S'false'
p6733
S'false'
p6734
tp6735
(lp6736
(dp6737
g6712
F0.8016038492381716
sg6713
F0.1983961507618284
saI6235
as(S'false'
p6738
S'false'
p6739
S'false'
p6740
tp6741
(lp6742
(dp6743
g6712
F0.8047030016464728
sg6713
F0.19529699835352726
saI23687
as(S'false'
p6744
S'true'
p6745
S'true'
p6746
tp6747
(lp6748
(dp6749
g6712
F0.8036373771862588
sg6713
F0.1963626228137412
saI14351
as(S'true'
p6750
S'false'
p6751
S'true'
p6752
tp6753
(lp6754
(dp6755
g6712
F0.7987884741322855
sg6713
F0.20121152586771449
saI6108
ass(S'VECTOR70'
p6756
g108
tp6757
(dp6758
(t(lp6759
(dp6760
S'false'
p6761
F0.09857
sS'true'
p6762
F0.90143
saI100000
ass(S'SNode_64'
p6763
S'GOAL_63, NEED36'
p6764
tp6765
(dp6766
(S'false'
p6767
S'true'
p6768
tp6769
(lp6770
(dp6771
S'false'
p6772
F0.7991837588949351
sS'true'
p6773
F0.20081624110506488
saI38224
as(S'true'
p6774
S'false'
p6775
tp6776
(lp6777
(dp6778
g6772
F0.798341825718974
sg6773
F0.201658174281026
saI11579
as(S'false'
p6779
S'false'
p6780
tp6781
(lp6782
(dp6783
g6772
F0.8012745783787985
sg6773
F0.19872542162120152
saI38601
as(S'true'
p6784
S'true'
p6785
tp6786
(lp6787
(dp6788
g6772
F0.00025870989996550536
sg6773
F0.9997412901000345
saI11596
ass(S'GOAL_121'
p6789
S'GOAL_109, GOAL72'
p6790
tp6791
(dp6792
(S'false'
p6793
S'true'
p6794
tp6795
(lp6796
(dp6797
S'false'
p6798
F0.8024316978972965
sS'true'
p6799
F0.19756830210270349
saI34955
as(S'true'
p6800
S'false'
p6801
tp6802
(lp6803
(dp6804
g6798
F0.7983419828806363
sg6799
F0.20165801711936376
saI14837
as(S'false'
p6805
S'false'
p6806
tp6807
(lp6808
(dp6809
g6798
F0.7977153197986767
sg6799
F0.2022846802013233
saI35366
as(S'true'
p6810
S'true'
p6811
tp6812
(lp6813
(dp6814
g6798
F0.00013475272874275703
sg6799
F0.9998652472712573
saI14842
ass(S'GOAL_79'
p6815
S'SNode_74, SNode_75, EQUATION28'
p6816
tp6817
(dp6818
(S'false'
p6819
S'false'
p6820
S'true'
p6821
tp6822
(lp6823
(dp6824
S'false'
p6825
F0.7978898780085724
sS'true'
p6826
F0.20211012199142764
saI30330
as(S'true'
p6827
S'true'
p6828
S'true'
p6829
tp6830
(lp6831
(dp6832
g6825
F0.0
sg6826
F1.0
saI702
as(S'false'
p6833
S'true'
p6834
S'false'
p6835
tp6836
(lp6837
(dp6838
g6825
F0.8021160330194164
sg6826
F0.19788396698058366
saI8601
as(S'true'
p6839
S'true'
p6840
S'false'
p6841
tp6842
(lp6843
(dp6844
g6825
F0.8088088088088088
sg6826
F0.19119119119119118
saI999
as(S'true'
p6845
S'false'
p6846
S'false'
p6847
tp6848
(lp6849
(dp6850
g6825
F0.7991352201257862
sg6826
F0.20086477987421383
saI5088
as(S'false'
p6851
S'false'
p6852
S'false'
p6853
tp6854
(lp6855
(dp6856
g6825
F0.8031174367742079
sg6826
F0.19688256322579212
saI45037
as(S'false'
p6857
S'true'
p6858
S'true'
p6859
tp6860
(lp6861
(dp6862
g6825
F0.796671866874675
sg6826
F0.20332813312532502
saI5769
as(S'true'
p6863
S'false'
p6864
S'true'
p6865
tp6866
(lp6867
(dp6868
g6825
F0.7970639032815199
sg6826
F0.20293609671848015
saI3474
ass(S'SNode_92'
p6869
S'SNode_12, STRAT_90, BUGGY54'
p6870
tp6871
(dp6872
(S'false'
p6873
S'SNode_92_1'
p6874
S'false'
p6875
tp6876
(lp6877
(dp6878
S'false'
p6879
F0.8248945147679325
sS'true'
p6880
F0.1751054852320675
saI474
as(S'true'
p6881
S'SNode_91_2'
p6882
S'true'
p6883
tp6884
(lp6885
(dp6886
g6879
F0.8034753008233059
sg6880
F0.1965246991766941
saI25264
as(S'true'
p6887
S'SNode_92_1'
p6888
S'false'
p6889
tp6890
(lp6891
(dp6892
g6879
F0.7969461103313342
sg6880
F0.20305388966866572
saI23511
as(S'true'
p6893
S'SNode_92_1'
p6894
S'true'
p6895
tp6896
(lp6897
(dp6898
g6879
F7.85607667530835e-05
sg6880
F0.999921439233247
saI25458
as(S'true'
p6899
S'SNode_91_2'
p6900
S'false'
p6901
tp6902
(lp6903
(dp6904
g6879
F0.8035225213837273
sg6880
F0.1964774786162727
saI23733
as(S'false'
p6905
S'SNode_91_2'
p6906
S'true'
p6907
tp6908
(lp6909
(dp6910
g6879
F0.7703703703703704
sg6880
F0.22962962962962963
saI540
as(S'false'
p6911
S'SNode_91_2'
p6912
S'false'
p6913
tp6914
(lp6915
(dp6916
g6879
F0.7963340122199593
sg6880
F0.20366598778004075
saI491
as(S'false'
p6917
S'SNode_92_1'
p6918
S'true'
p6919
tp6920
(lp6921
(dp6922
g6879
F0.8393194706994329
sg6880
F0.16068052930056712
saI529
ass(S'SNode_118'
p6923
S'SNode_91, GOAL_113, VECTOR70'
p6924
tp6925
(dp6926
(S'false'
p6927
S'false'
p6928
S'true'
p6929
tp6930
(lp6931
(dp6932
S'false'
p6933
F0.7978607103813423
sS'true'
p6934
F0.20213928961865768
saI46651
as(S'true'
p6935
S'true'
p6936
S'true'
p6937
tp6938
(lp6939
(dp6940
g6933
F0.0
sg6934
F1.0
saI6879
as(S'false'
p6941
S'true'
p6942
S'false'
p6943
tp6944
(lp6945
(dp6946
g6933
F0.8110328638497653
sg6934
F0.18896713615023475
saI2556
as(S'true'
p6947
S'true'
p6948
S'false'
p6949
tp6950
(lp6951
(dp6952
g6933
F0.7958620689655173
sg6934
F0.20413793103448277
saI725
as(S'true'
p6953
S'false'
p6954
S'false'
p6955
tp6956
(lp6957
(dp6958
g6933
F0.7934782608695652
sg6934
F0.20652173913043478
saI1564
as(S'false'
p6959
S'false'
p6960
S'false'
p6961
tp6962
(lp6963
(dp6964
g6933
F0.7976855546687949
sg6934
F0.2023144453312051
saI5012
as(S'false'
p6965
S'true'
p6966
S'true'
p6967
tp6968
(lp6969
(dp6970
g6933
F0.7980616038236856
sg6934
F0.2019383961763144
saI22596
as(S'true'
p6971
S'false'
p6972
S'true'
p6973
tp6974
(lp6975
(dp6976
g6933
F0.79731754298352
sg6934
F0.20268245701648
saI14017
ass(S'SNode_60'
p6977
S'SNode_59, AXIS33'
p6978
tp6979
(dp6980
(S'false'
p6981
S'true'
p6982
tp6983
(lp6984
(dp6985
S'false'
p6986
F0.7998385350727509
sS'true'
p6987
F0.20016146492724904
saI54501
as(S'true'
p6988
S'false'
p6989
tp6990
(lp6991
(dp6992
g6986
F0.7987135236899906
sg6987
F0.20128647631000943
saI6374
as(S'false'
p6993
S'false'
p6994
tp6995
(lp6996
(dp6997
g6986
F0.7923954936258524
sg6987
F0.20760450637414765
saI13492
as(S'true'
p6998
S'true'
p6999
tp7000
(lp7001
(dp7002
g6986
F0.00015604884328794912
sg6987
F0.9998439511567121
saI25633
ass(S'WRITE30'
p7003
g108
tp7004
(dp7005
(t(lp7006
(dp7007
S'false'
p7008
F0.49976
sS'true'
p7009
F0.50024
saI100000
ass(S'IDENTIFY59'
p7010
g108
tp7011
(dp7012
(t(lp7013
(dp7014
S'false'
p7015
F0.50191
sS'true'
p7016
F0.49809
saI100000
ass(S'VECTOR44'
p7017
g108
tp7018
(dp7019
(t(lp7020
(dp7021
S'false'
p7022
F0.5005
sS'true'
p7023
F0.4995
saI100000
ass(S'KINE29'
p7024
g108
tp7025
(dp7026
(t(lp7027
(dp7028
S'false'
p7029
F0.50226
sS'true'
p7030
F0.49774
saI100000
ass(S'SNode_52'
p7031
S'SNode_51, KINEMATI17'
p7032
tp7033
(dp7034
(S'false'
p7035
S'true'
p7036
tp7037
(lp7038
(dp7039
S'false'
p7040
F0.798334147267893
sS'true'
p7041
F0.201665852732107
saI36858
as(S'true'
p7042
S'false'
p7043
tp7044
(lp7045
(dp7046
g7040
F0.8048380803745611
sg7041
F0.19516191962543894
saI12815
as(S'false'
p7047
S'false'
p7048
tp7049
(lp7050
(dp7051
g7040
F0.8013926977469484
sg7041
F0.19860730225305157
saI37194
as(S'true'
p7052
S'true'
p7053
tp7054
(lp7055
(dp7056
g7040
F0.0
sg7041
F1.0
saI13133
ass(S'RApp10'
p7057
S'NEED36, GOAL_127'
p7058
tp7059
(dp7060
(S'false'
p7061
S'true'
p7062
tp7063
(lp7064
(dp7065
S'false'
p7066
F1.0
sS'true'
p7067
F0.0
saI14789
as(S'true'
p7068
S'false'
p7069
tp7070
(lp7071
(dp7072
g7066
F1.0
sg7067
F0.0
saI35169
as(S'false'
p7073
S'false'
p7074
tp7075
(lp7076
(dp7077
g7066
F1.0
sg7067
F0.0
saI35391
as(S'true'
p7078
S'true'
p7079
tp7080
(lp7081
(dp7082
g7066
F0.0
sg7067
F1.0
saI14651
ass(S'GOAL_61'
p7083
S'GOAL_56, SNode_60, WRITE31'
p7084
tp7085
(dp7086
(S'false'
p7087
S'false'
p7088
S'true'
p7089
tp7090
(lp7091
(dp7092
S'false'
p7093
F0.804234414398748
sS'true'
p7094
F0.19576558560125207
saI23002
as(S'true'
p7095
S'true'
p7096
S'true'
p7097
tp7098
(lp7099
(dp7100
g7093
F0.0
sg7094
F1.0
saI5996
as(S'false'
p7101
S'true'
p7102
S'false'
p7103
tp7104
(lp7105
(dp7106
g7093
F0.7986355324236882
sg7094
F0.2013644675763117
saI14218
as(S'true'
p7107
S'true'
p7108
S'false'
p7109
tp7110
(lp7111
(dp7112
g7093
F0.7999035679845709
sg7094
F0.20009643201542912
saI6222
as(S'true'
p7113
S'false'
p7114
S'false'
p7115
tp7116
(lp7117
(dp7118
g7093
F0.8085042219541616
sg7094
F0.19149577804583837
saI6632
as(S'false'
p7119
S'false'
p7120
S'false'
p7121
tp7122
(lp7123
(dp7124
g7093
F0.8008782226859702
sg7094
F0.19912177731402983
saI23001
as(S'false'
p7125
S'true'
p7126
S'true'
p7127
tp7128
(lp7129
(dp7130
g7093
F0.8028337797828845
sg7094
F0.19716622021711547
saI14186
as(S'true'
p7131
S'false'
p7132
S'true'
p7133
tp7134
(lp7135
(dp7136
g7093
F0.7946018092837016
sg7094
F0.2053981907162984
saI6743
ass(S'GOAL_56'
p7137
S'GOAL_49, SNode_52, APPLY32'
p7138
tp7139
(dp7140
(S'false'
p7141
S'false'
p7142
S'true'
p7143
tp7144
(lp7145
(dp7146
S'false'
p7147
F0.8007892293407614
sS'true'
p7148
F0.19921077065923862
saI21540
as(S'true'
p7149
S'true'
p7150
S'true'
p7151
tp7152
(lp7153
(dp7154
g7147
F0.0
sg7148
F1.0
saI6988
as(S'false'
p7155
S'true'
p7156
S'false'
p7157
tp7158
(lp7159
(dp7160
g7147
F0.8065863262140556
sg7148
F0.1934136737859444
saI8381
as(S'true'
p7161
S'true'
p7162
S'false'
p7163
tp7164
(lp7165
(dp7166
g7147
F0.800431654676259
sg7148
F0.19956834532374101
saI6950
as(S'true'
p7167
S'false'
p7168
S'false'
p7169
tp7170
(lp7171
(dp7172
g7147
F0.7963120787169753
sg7148
F0.2036879212830247
saI12907
as(S'false'
p7173
S'false'
p7174
S'false'
p7175
tp7176
(lp7177
(dp7178
g7147
F0.8009702073131665
sg7148
F0.19902979268683355
saI21851
as(S'false'
p7179
S'true'
p7180
S'true'
p7181
tp7182
(lp7183
(dp7184
g7147
F0.8044253226797787
sg7148
F0.19557467732022127
saI8135
as(S'true'
p7185
S'false'
p7186
S'true'
p7187
tp7188
(lp7189
(dp7190
g7147
F0.7934027777777778
sg7148
F0.2065972222222222
saI13248
ass(S'SNode_17'
p7191
g108
tp7192
(dp7193
(t(lp7194
(dp7195
S'false'
p7196
F0.02035
sS'true'
p7197
F0.97965
saI100000
ass(S'RESOLVE40'
p7198
g108
tp7199
(dp7200
(t(lp7201
(dp7202
S'false'
p7203
F0.49613
sS'true'
p7204
F0.50387
saI100000
ass(S'GIVEN_1'
p7205
g108
tp7206
(dp7207
(t(lp7208
(dp7209
S'false'
p7210
F0.02041
sS'true'
p7211
F0.97959
saI100000
ass(S'SNode_70'
p7212
S'GOAL_69, NEED36'
p7213
tp7214
(dp7215
(S'false'
p7216
S'true'
p7217
tp7218
(lp7219
(dp7220
S'false'
p7221
F0.7978633828018104
sS'true'
p7222
F0.20213661719818968
saI38004
as(S'true'
p7223
S'false'
p7224
tp7225
(lp7226
(dp7227
g7221
F0.7976657011415914
sg7222
F0.2023342988584086
saI11738
as(S'false'
p7228
S'false'
p7229
tp7230
(lp7231
(dp7232
g7221
F0.7981374538265439
sg7222
F0.20186254617345611
saI38442
as(S'true'
p7233
S'true'
p7234
tp7235
(lp7236
(dp7237
g7221
F8.463100880162491e-05
sg7222
F0.9999153689911984
saI11816
ass(S'SNode_67'
p7238
S'GOAL_66, NEED36'
p7239
tp7240
(dp7241
(S'false'
p7242
S'true'
p7243
tp7244
(lp7245
(dp7246
S'false'
p7247
F0.8000622939756534
sS'true'
p7248
F0.19993770602434657
saI38527
as(S'true'
p7249
S'false'
p7250
tp7251
(lp7252
(dp7253
g7247
F0.7988134705984994
sg7248
F0.2011865294015006
saI11462
as(S'false'
p7254
S'false'
p7255
tp7256
(lp7257
(dp7258
g7247
F0.7987499354305491
sg7248
F0.2012500645694509
saI38718
as(S'true'
p7259
S'true'
p7260
tp7261
(lp7262
(dp7263
g7247
F8.855042946958293e-05
sg7248
F0.9999114495705305
saI11293
ass(S'SNode_119'
p7264
S'SNode_93, SNode_117, SNode_118, EQUAL71'
p7265
tp7266
(dp7267
(S'true'
p7268
S'true'
p7269
S'true'
p7270
S'true'
p7271
tp7272
(lp7273
(dp7274
S'false'
p7275
F0.0
sS'true'
p7276
F1.0
saI1745
as(S'false'
p7277
S'true'
p7278
S'false'
p7279
S'false'
p7280
tp7281
(lp7282
(dp7283
g7275
F0.9060991663010092
sg7276
F0.09390083369899078
saI6837
as(S'true'
p7284
S'false'
p7285
S'false'
p7286
S'false'
p7287
tp7288
(lp7289
(dp7290
g7275
F0.9028509170147085
sg7276
F0.09714908298529144
saI5507
as(S'true'
p7291
S'false'
p7292
S'true'
p7293
S'false'
p7294
tp7295
(lp7296
(dp7297
g7275
F0.9064293915040184
sg7276
F0.09357060849598163
saI1742
as(S'false'
p7298
S'true'
p7299
S'false'
p7300
S'true'
p7301
tp7302
(lp7303
(dp7304
g7275
F0.9010989010989011
sg7276
F0.0989010989010989
saI10101
as(S'true'
p7305
S'true'
p7306
S'true'
p7307
S'false'
p7308
tp7309
(lp7310
(dp7311
g7275
F0.8984995586937334
sg7276
F0.10150044130626655
saI1133
as(S'true'
p7312
S'false'
p7313
S'true'
p7314
S'true'
p7315
tp7316
(lp7317
(dp7318
g7275
F0.8963019443385436
sg7276
F0.10369805566145635
saI2623
as(S'true'
p7319
S'true'
p7320
S'false'
p7321
S'true'
p7322
tp7323
(lp7324
(dp7325
g7275
F0.9006675567423231
sg7276
F0.0993324432576769
saI3745
as(S'false'
p7326
S'false'
p7327
S'false'
p7328
S'true'
p7329
tp7330
(lp7331
(dp7332
g7275
F0.8982580269580404
sg7276
F0.1017419730419596
saI22331
as(S'false'
p7333
S'true'
p7334
S'true'
p7335
S'false'
p7336
tp7337
(lp7338
(dp7339
g7275
F0.896551724137931
sg7276
F0.10344827586206896
saI2871
as(S'false'
p7340
S'false'
p7341
S'true'
p7342
S'false'
p7343
tp7344
(lp7345
(dp7346
g7275
F0.9061538461538462
sg7276
F0.09384615384615384
saI4550
as(S'false'
p7347
S'true'
p7348
S'true'
p7349
S'true'
p7350
tp7351
(lp7352
(dp7353
g7275
F0.9035825919692234
sg7276
F0.09641740803077663
saI4159
as(S'true'
p7354
S'false'
p7355
S'false'
p7356
S'true'
p7357
tp7358
(lp7359
(dp7360
g7275
F0.9011429961089494
sg7276
F0.09885700389105058
saI8224
as(S'false'
p7361
S'false'
p7362
S'false'
p7363
S'false'
p7364
tp7365
(lp7366
(dp7367
g7275
F0.9012460851602585
sg7276
F0.09875391483974146
saI15007
as(S'true'
p7368
S'true'
p7369
S'false'
p7370
S'false'
p7371
tp7372
(lp7373
(dp7374
g7275
F0.9061160888196338
sg7276
F0.09388391118036618
saI2567
as(S'false'
p7375
S'false'
p7376
S'true'
p7377
S'true'
p7378
tp7379
(lp7380
(dp7381
g7275
F0.9031787693205016
sg7276
F0.0968212306794984
saI6858
ass(S'IDENTIFY43'
p7382
g108
tp7383
(dp7384
(t(lp7385
(dp7386
S'false'
p7387
F0.59997
sS'true'
p7388
F0.40003
saI100000
ass(S'GOAL_50'
p7389
S'GOAL_49, CHOOSE19'
p7390
tp7391
(dp7392
(S'false'
p7393
S'true'
p7394
tp7395
(lp7396
(dp7397
S'false'
p7398
F0.799513851891316
sS'true'
p7399
F0.20048614810868406
saI30032
as(S'true'
p7400
S'false'
p7401
tp7402
(lp7403
(dp7404
g7398
F0.806685320275807
sg7399
F0.19331467972419306
saI20014
as(S'false'
p7405
S'false'
p7406
tp7407
(lp7408
(dp7409
g7398
F0.8000334728033472
sg7399
F0.19996652719665273
saI29875
as(S'true'
p7410
S'true'
p7411
tp7412
(lp7413
(dp7414
g7398
F4.980327705563026e-05
sg7399
F0.9999501967229444
saI20079
ass(S'SNode_13'
p7415
g108
tp7416
(dp7417
(t(lp7418
(dp7419
S'false'
p7420
F0.01999
sS'true'
p7421
F0.98001
saI100000
ass(S'SNode_112'
p7422
S'RApp7, RApp8'
p7423
tp7424
(dp7425
(S'false'
p7426
S'true'
p7427
tp7428
(lp7429
(dp7430
S'false'
p7431
F0.0
sS'true'
p7432
F1.0
saI10732
as(S'true'
p7433
S'false'
p7434
tp7435
(lp7436
(dp7437
g7431
F0.0
sg7432
F1.0
saI11139
as(S'false'
p7438
S'false'
p7439
tp7440
(lp7441
(dp7442
g7431
F0.7968522806828585
sg7432
F0.20314771931714148
saI74276
as(S'true'
p7443
S'true'
p7444
tp7445
(lp7446
(dp7447
g7431
F0.0
sg7432
F1.0
saI3853
ass(S'SNode_41'
p7448
S'SNode_9, CONSTANT5'
p7449
tp7450
(dp7451
(S'false'
p7452
S'true'
p7453
tp7454
(lp7455
(dp7456
S'false'
p7457
F0.7907444668008048
sS'true'
p7458
F0.20925553319919518
saI994
as(S'true'
p7459
S'false'
p7460
tp7461
(lp7462
(dp7463
g7457
F0.7996668996997985
sg7458
F0.20033310030020152
saI48634
as(S'false'
p7464
S'false'
p7465
tp7466
(lp7467
(dp7468
g7457
F0.8073022312373225
sg7458
F0.1926977687626775
saI986
as(S'true'
p7469
S'true'
p7470
tp7471
(lp7472
(dp7473
g7457
F0.00012149192078726765
sg7458
F0.9998785080792127
saI49386
ass(S'RApp7'
p7474
S'NEED67, GOAL_109'
p7475
tp7476
(dp7477
(S'false'
p7478
S'true'
p7479
tp7480
(lp7481
(dp7482
S'false'
p7483
F1.0
sS'true'
p7484
F0.0
saI14686
as(S'true'
p7485
S'false'
p7486
tp7487
(lp7488
(dp7489
g7483
F1.0
sg7484
F0.0
saI35432
as(S'false'
p7490
S'false'
p7491
tp7492
(lp7493
(dp7494
g7483
F1.0
sg7484
F0.0
saI34889
as(S'true'
p7495
S'true'
p7496
tp7497
(lp7498
(dp7499
g7483
F6.669779230307477e-05
sg7484
F0.9999333022076969
saI14993
ass(S'TRY15'
p7500
S'TRY12'
p7501
tp7502
(dp7503
(S'true'
p7504
tp7505
(lp7506
(dp7507
S'false'
p7508
F0.0
sS'true'
p7509
F1.0
saI30109
as(S'false'
p7510
tp7511
(lp7512
(dp7513
g7508
F0.8995864989769784
sg7509
F0.10041350102302156
saI69891
ass(S'SNode_116'
p7514
S'SNode_95, SNode_97, GOAL_114, SNode_115, VECTOR69'
p7515
tp7516
(dp7517
(S'false'
p7518
S'false'
p7519
S'false'
p7520
S'true'
p7521
S'false'
p7522
tp7523
(lp7524
(dp7525
S'false'
p7526
F0.8990522371611197
sS'true'
p7527
F0.10094776283888032
saI4537
as(S'true'
p7528
S'true'
p7529
S'false'
p7530
S'true'
p7531
S'true'
p7532
tp7533
(lp7534
(dp7535
g7526
F0.8911917098445595
sg7527
F0.10880829015544041
saI579
as(S'true'
p7536
S'true'
p7537
S'false'
p7538
S'false'
p7539
S'false'
p7540
tp7541
(lp7542
(dp7543
g7526
F0.9017710425415374
sg7527
F0.09822895745846266
saI5477
as(S'true'
p7544
S'false'
p7545
S'true'
p7546
S'true'
p7547
S'true'
p7548
tp7549
(lp7550
(dp7551
g7526
F0.894542772861357
sg7527
F0.10545722713864307
saI1356
as(S'true'
p7552
S'true'
p7553
S'false'
p7554
S'false'
p7555
S'true'
p7556
tp7557
(lp7558
(dp7559
g7526
F0.9060749676863421
sg7527
F0.09392503231365791
saI2321
as(S'false'
p7560
S'true'
p7561
S'true'
p7562
S'true'
p7563
S'true'
p7564
tp7565
(lp7566
(dp7567
g7526
F0.8995584988962473
sg7527
F0.10044150110375276
saI906
as(S'false'
p7568
S'true'
p7569
S'false'
p7570
S'false'
p7571
S'true'
p7572
tp7573
(lp7574
(dp7575
g7526
F0.9040605095541401
sg7527
F0.09593949044585988
saI2512
as(S'true'
p7576
S'true'
p7577
S'false'
p7578
S'true'
p7579
S'false'
p7580
tp7581
(lp7582
(dp7583
g7526
F0.9127413127413128
sg7527
F0.08725868725868725
saI1295
as(S'false'
p7584
S'false'
p7585
S'true'
p7586
S'true'
p7587
S'false'
p7588
tp7589
(lp7590
(dp7591
g7526
F0.9108299442687152
sg7527
F0.08917005573128484
saI6639
as(S'false'
p7592
S'true'
p7593
S'true'
p7594
S'false'
p7595
S'true'
p7596
tp7597
(lp7598
(dp7599
g7526
F0.9138513513513513
sg7527
F0.08614864864864864
saI592
as(S'false'
p7600
S'false'
p7601
S'true'
p7602
S'false'
p7603
S'true'
p7604
tp7605
(lp7606
(dp7607
g7526
F0.9021232522009321
sg7527
F0.09787674779906784
saI1931
as(S'true'
p7608
S'true'
p7609
S'true'
p7610
S'true'
p7611
S'false'
p7612
tp7613
(lp7614
(dp7615
g7526
F0.9073684210526316
sg7527
F0.09263157894736843
saI1900
as(S'false'
p7616
S'false'
p7617
S'true'
p7618
S'false'
p7619
S'false'
p7620
tp7621
(lp7622
(dp7623
g7526
F0.901131221719457
sg7527
F0.09886877828054298
saI4420
as(S'true'
p7624
S'false'
p7625
S'true'
p7626
S'false'
p7627
S'false'
p7628
tp7629
(lp7630
(dp7631
g7526
F0.899652260307998
sg7527
F0.10034773969200199
saI2013
as(S'true'
p7632
S'true'
p7633
S'true'
p7634
S'true'
p7635
S'true'
p7636
tp7637
(lp7638
(dp7639
g7526
F0.0
sg7527
F1.0
saI918
as(S'false'
p7640
S'true'
p7641
S'false'
p7642
S'true'
p7643
S'false'
p7644
tp7645
(lp7646
(dp7647
g7526
F0.8986722571628232
sg7527
F0.1013277428371768
saI1431
as(S'true'
p7648
S'false'
p7649
S'false'
p7650
S'true'
p7651
S'true'
p7652
tp7653
(lp7654
(dp7655
g7526
F0.8963911525029103
sg7527
F0.10360884749708964
saI859
as(S'true'
p7656
S'false'
p7657
S'true'
p7658
S'true'
p7659
S'false'
p7660
tp7661
(lp7662
(dp7663
g7526
F0.8981156180134142
sg7527
F0.10188438198658575
saI3131
as(S'false'
p7664
S'false'
p7665
S'false'
p7666
S'false'
p7667
S'false'
p7668
tp7669
(lp7670
(dp7671
g7526
F0.9000554938956715
sg7527
F0.09994450610432852
saI18020
as(S'false'
p7672
S'true'
p7673
S'false'
p7674
S'true'
p7675
S'true'
p7676
tp7677
(lp7678
(dp7679
g7526
F0.8857615894039735
sg7527
F0.11423841059602649
saI604
as(S'false'
p7680
S'true'
p7681
S'true'
p7682
S'false'
p7683
S'false'
p7684
tp7685
(lp7686
(dp7687
g7526
F0.9072664359861592
sg7527
F0.09273356401384084
saI1445
as(S'false'
p7688
S'false'
p7689
S'false'
p7690
S'false'
p7691
S'true'
p7692
tp7693
(lp7694
(dp7695
g7526
F0.9020480854853072
sg7527
F0.09795191451469279
saI7861
as(S'false'
p7696
S'false'
p7697
S'true'
p7698
S'true'
p7699
S'true'
p7700
tp7701
(lp7702
(dp7703
g7526
F0.8905135520684736
sg7527
F0.10948644793152638
saI2804
as(S'true'
p7704
S'false'
p7705
S'false'
p7706
S'false'
p7707
S'true'
p7708
tp7709
(lp7710
(dp7711
g7526
F0.9076836476217282
sg7527
F0.09231635237827188
saI3553
as(S'false'
p7712
S'true'
p7713
S'false'
p7714
S'false'
p7715
S'false'
p7716
tp7717
(lp7718
(dp7719
g7526
F0.8987229514012061
sg7527
F0.1012770485987939
saI5638
as(S'true'
p7720
S'false'
p7721
S'true'
p7722
S'false'
p7723
S'true'
p7724
tp7725
(lp7726
(dp7727
g7526
F0.8982035928143712
sg7527
F0.10179640718562874
saI835
as(S'true'
p7728
S'true'
p7729
S'true'
p7730
S'false'
p7731
S'true'
p7732
tp7733
(lp7734
(dp7735
g7526
F0.8812392426850258
sg7527
F0.11876075731497418
saI581
as(S'false'
p7736
S'false'
p7737
S'false'
p7738
S'true'
p7739
S'true'
p7740
tp7741
(lp7742
(dp7743
g7526
F0.8922064777327935
sg7527
F0.10779352226720648
saI1976
as(S'true'
p7744
S'true'
p7745
S'true'
p7746
S'false'
p7747
S'false'
p7748
tp7749
(lp7750
(dp7751
g7526
F0.9064465408805031
sg7527
F0.09355345911949685
saI1272
as(S'true'
p7752
S'false'
p7753
S'false'
p7754
S'true'
p7755
S'false'
p7756
tp7757
(lp7758
(dp7759
g7526
F0.9068467629250117
sg7527
F0.09315323707498836
saI2147
as(S'true'
p7760
S'false'
p7761
S'false'
p7762
S'false'
p7763
S'false'
p7764
tp7765
(lp7766
(dp7767
g7526
F0.8943553178847297
sg7527
F0.10564468211527035
saI8415
as(S'false'
p7768
S'true'
p7769
S'true'
p7770
S'true'
p7771
S'false'
p7772
tp7773
(lp7774
(dp7775
g7526
F0.9005905511811023
sg7527
F0.09940944881889764
saI2032
ass(S'CHOOSE35'
p7776
g108
tp7777
(dp7778
(t(lp7779
(dp7780
S'false'
p7781
F0.50006
sS'true'
p7782
F0.49994
saI100000
ass(S'SNode_51'
p7783
S'SNode_17, GOAL_50, SYSTEM18'
p7784
tp7785
(dp7786
(S'false'
p7787
S'false'
p7788
S'true'
p7789
tp7790
(lp7791
(dp7792
S'false'
p7793
F0.8800599700149925
sS'true'
p7794
F0.1199400299850075
saI667
as(S'true'
p7795
S'true'
p7796
S'true'
p7797
tp7798
(lp7799
(dp7800
g7793
F0.00016920473773265651
sg7794
F0.9998307952622674
saI17730
as(S'false'
p7801
S'true'
p7802
S'false'
p7803
tp7804
(lp7805
(dp7806
g7793
F0.8805970149253731
sg7794
F0.11940298507462686
saI335
as(S'true'
p7807
S'true'
p7808
S'false'
p7809
tp7810
(lp7811
(dp7812
g7793
F0.903317914453772
sg7794
F0.09668208554622809
saI17511
as(S'true'
p7813
S'false'
p7814
S'false'
p7815
tp7816
(lp7817
(dp7818
g7793
F0.8989456869009584
sg7794
F0.10105431309904153
saI31300
as(S'false'
p7819
S'false'
p7820
S'false'
p7821
tp7822
(lp7823
(dp7824
g7793
F0.9130434782608695
sg7794
F0.08695652173913043
saI667
as(S'false'
p7825
S'true'
p7826
S'true'
p7827
tp7828
(lp7829
(dp7830
g7793
F0.8989071038251366
sg7794
F0.10109289617486339
saI366
as(S'true'
p7831
S'false'
p7832
S'true'
p7833
tp7834
(lp7835
(dp7836
g7793
F0.8997581466395111
sg7794
F0.1002418533604888
saI31424
ass(S'GOAL72'
p7837
g108
tp7838
(dp7839
(t(lp7840
(dp7841
S'false'
p7842
F0.50203
sS'true'
p7843
F0.49797
saI100000
ass(S'SNode_91'
p7844
S'SNode_88, SNode_12, SNode_13, STRAT_90, INCLINE51'
p7845
tp7846
(dp7847
(S'false'
p7848
S'true'
p7849
S'true'
p7850
S'SNode_91_2'
p7851
S'false'
p7852
tp7853
(lp7854
(dp7855
S'false'
p7856
F0.8055520451577572
sS'true'
p7857
F0.19444795484224273
saI23739
as(S'true'
p7858
S'false'
p7859
S'false'
p7860
S'SNode_92_1'
p7861
S'false'
p7862
tp7863
(lp7864
(dp7865
g7856
F0.6666666666666666
sg7857
F0.3333333333333333
saI3
as(S'true'
p7866
S'true'
p7867
S'true'
p7868
S'SNode_91_2'
p7869
S'false'
p7870
tp7871
(lp7872
(dp7873
g7856
F0.7911497105045492
sg7857
F0.20885028949545079
saI7254
as(S'false'
p7874
S'false'
p7875
S'true'
p7876
S'SNode_91_2'
p7877
S'true'
p7878
tp7879
(lp7880
(dp7881
g7856
F0.7875457875457875
sg7857
F0.21245421245421245
saI273
as(S'true'
p7882
S'false'
p7883
S'false'
p7884
S'SNode_91_2'
p7885
S'true'
p7886
tp7887
(lp7888
(dp7889
g7856
F1.0
sg7857
F0.0
saI1
as(S'true'
p7890
S'false'
p7891
S'true'
p7892
S'SNode_92_1'
p7893
S'false'
p7894
tp7895
(lp7896
(dp7897
g7856
F0.8109756097560976
sg7857
F0.18902439024390244
saI164
as(S'true'
p7898
S'false'
p7899
S'true'
p7900
S'SNode_92_1'
p7901
S'true'
p7902
tp7903
(lp7904
(dp7905
g7856
F0.76
sg7857
F0.24
saI75
as(S'true'
p7906
S'true'
p7907
S'true'
p7908
S'SNode_92_1'
p7909
S'true'
p7910
tp7911
(lp7912
(dp7913
g7856
F0.8038035628310063
sg7857
F0.19619643716899374
saI4154
as(S'false'
p7914
S'false'
p7915
S'false'
p7916
S'SNode_91_2'
p7917
S'true'
p7918
tp7919
(lp7920
(dp7921
g7856
F1.0
sg7857
F0.0
saI5
as(S'false'
p7922
S'false'
p7923
S'true'
p7924
S'SNode_92_1'
p7925
S'true'
p7926
tp7927
(lp7928
(dp7929
g7856
F0.7622641509433963
sg7857
F0.23773584905660378
saI265
as(S'false'
p7930
S'true'
p7931
S'false'
p7932
S'SNode_92_1'
p7933
S'true'
p7934
tp7935
(lp7936
(dp7937
g7856
F0.8267716535433071
sg7857
F0.1732283464566929
saI254
as(S'false'
p7938
S'false'
p7939
S'true'
p7940
S'SNode_92_1'
p7941
S'false'
p7942
tp7943
(lp7944
(dp7945
g7856
F0.7895833333333333
sg7857
F0.21041666666666667
saI480
as(S'true'
p7946
S'true'
p7947
S'true'
p7948
S'SNode_91_2'
p7949
S'true'
p7950
tp7951
(lp7952
(dp7953
g7856
F0.0
sg7857
F1.0
saI4049
as(S'false'
p7954
S'true'
p7955
S'true'
p7956
S'SNode_91_2'
p7957
S'true'
p7958
tp7959
(lp7960
(dp7961
g7856
F0.8013066871637202
sg7857
F0.19869331283627978
saI13010
as(S'true'
p7962
S'false'
p7963
S'false'
p7964
S'SNode_92_1'
p7965
S'true'
p7966
tp7967
(lp7968
(dp7969
g7856
F1.0
sg7857
F0.0
saI3
as(S'false'
p7970
S'false'
p7971
S'false'
p7972
S'SNode_91_2'
p7973
S'false'
p7974
tp7975
(lp7976
(dp7977
g7856
F0.8571428571428571
sg7857
F0.14285714285714285
saI7
as(S'true'
p7978
S'true'
p7979
S'false'
p7980
S'SNode_92_1'
p7981
S'false'
p7982
tp7983
(lp7984
(dp7985
g7856
F0.8033707865168539
sg7857
F0.19662921348314608
saI178
as(S'false'
p7986
S'true'
p7987
S'false'
p7988
S'SNode_91_2'
p7989
S'false'
p7990
tp7991
(lp7992
(dp7993
g7856
F0.7614879649890591
sg7857
F0.23851203501094093
saI457
as(S'true'
p7994
S'false'
p7995
S'true'
p7996
S'SNode_91_2'
p7997
S'true'
p7998
tp7999
(lp8000
(dp8001
g7856
F0.8076923076923077
sg7857
F0.19230769230769232
saI78
as(S'true'
p8002
S'false'
p8003
S'true'
p8004
S'SNode_91_2'
p8005
S'false'
p8006
tp8007
(lp8008
(dp8009
g7856
F0.8271604938271605
sg7857
F0.1728395061728395
saI162
as(S'false'
p8010
S'false'
p8011
S'true'
p8012
S'SNode_91_2'
p8013
S'false'
p8014
tp8015
(lp8016
(dp8017
g7856
F0.7881188118811882
sg7857
F0.21188118811881188
saI505
as(S'true'
p8018
S'true'
p8019
S'true'
p8020
S'SNode_92_1'
p8021
S'false'
p8022
tp8023
(lp8024
(dp8025
g7856
F0.7965017621720402
sg7857
F0.20349823782795978
saI7661
as(S'false'
p8026
S'true'
p8027
S'false'
p8028
S'SNode_92_1'
p8029
S'false'
p8030
tp8031
(lp8032
(dp8033
g7856
F0.7875243664717348
sg7857
F0.2124756335282651
saI513
as(S'true'
p8034
S'true'
p8035
S'false'
p8036
S'SNode_91_2'
p8037
S'true'
p8038
tp8039
(lp8040
(dp8041
g7856
F0.775
sg7857
F0.225
saI80
as(S'false'
p8042
S'false'
p8043
S'false'
p8044
S'SNode_92_1'
p8045
S'false'
p8046
tp8047
(lp8048
(dp8049
g7856
F0.7777777777777778
sg7857
F0.2222222222222222
saI9
as(S'true'
p8050
S'true'
p8051
S'false'
p8052
S'SNode_92_1'
p8053
S'true'
p8054
tp8055
(lp8056
(dp8057
g7856
F0.8051948051948052
sg7857
F0.19480519480519481
saI77
as(S'false'
p8058
S'false'
p8059
S'false'
p8060
S'SNode_92_1'
p8061
S'true'
p8062
tp8063
(lp8064
(dp8065
g7856
F1.0
sg7857
F0.0
saI4
as(S'false'
p8066
S'true'
p8067
S'false'
p8068
S'SNode_91_2'
p8069
S'true'
p8070
tp8071
(lp8072
(dp8073
g7856
F0.7777777777777778
sg7857
F0.2222222222222222
saI261
as(S'false'
p8074
S'true'
p8075
S'true'
p8076
S'SNode_92_1'
p8077
S'false'
p8078
tp8079
(lp8080
(dp8081
g7856
F0.8006722260040844
sg7857
F0.19932777399591559
saI23504
as(S'false'
p8082
S'true'
p8083
S'true'
p8084
S'SNode_92_1'
p8085
S'true'
p8086
tp8087
(lp8088
(dp8089
g7856
F0.8007602153943617
sg7857
F0.19923978460563826
saI12628
as(S'true'
p8090
S'true'
p8091
S'false'
p8092
S'SNode_91_2'
p8093
S'false'
p8094
tp8095
(lp8096
(dp8097
g7856
F0.782312925170068
sg7857
F0.21768707482993196
saI147
as(S'true'
p8098
S'false'
p8099
S'false'
p8100
S'SNode_91_2'
p8101
S'false'
p8102
tp8103
(lp8104
(dp8105
g7856
I0
sg7857
I0
saI0
ass(S'SNode_19'
p8106
g108
tp8107
(dp8108
(t(lp8109
(dp8110
S'false'
p8111
F0.01988
sS'true'
p8112
F0.98012
saI100000
ass(S'GOAL_72'
p8113
S'SNode_55, GOAL_62, RESOLVE42'
p8114
tp8115
(dp8116
(S'false'
p8117
S'false'
p8118
S'true'
p8119
tp8120
(lp8121
(dp8122
S'false'
p8123
F0.7990378471830721
sS'true'
p8124
F0.20096215281692786
saI26607
as(S'true'
p8125
S'true'
p8126
S'true'
p8127
tp8128
(lp8129
(dp8130
g8123
F0.00027114967462039046
sg8124
F0.9997288503253796
saI3688
as(S'false'
p8131
S'true'
p8132
S'false'
p8133
tp8134
(lp8135
(dp8136
g8123
F0.7967933705638623
sg8124
F0.20320662943613763
saI11102
as(S'true'
p8137
S'true'
p8138
S'false'
p8139
tp8140
(lp8141
(dp8142
g8123
F0.8000531773464504
sg8124
F0.1999468226535496
saI3761
as(S'true'
p8143
S'false'
p8144
S'false'
p8145
tp8146
(lp8147
(dp8148
g8123
F0.8024649092776447
sg8124
F0.19753509072235537
saI8763
as(S'false'
p8149
S'false'
p8150
S'false'
p8151
tp8152
(lp8153
(dp8154
g8123
F0.8020499923792105
sg8124
F0.19795000762078951
saI26244
as(S'false'
p8155
S'true'
p8156
S'true'
p8157
tp8158
(lp8159
(dp8160
g8123
F0.7839345147072052
sg8124
F0.21606548529279482
saI11117
as(S'true'
p8161
S'false'
p8162
S'true'
p8163
tp8164
(lp8165
(dp8166
g8123
F0.8078687772424868
sg8124
F0.19213122275751318
saI8718
ass(S'SNode_95'
p8167
S'SNode_94, WEIGHT57'
p8168
tp8169
(dp8170
(S'false'
p8171
S'true'
p8172
tp8173
(lp8174
(dp8175
S'false'
p8176
F0.7993685711375904
sS'true'
p8177
F0.20063142886240962
saI49095
as(S'true'
p8178
S'false'
p8179
tp8180
(lp8181
(dp8182
g8176
F0.8001562151305512
sg8177
F0.1998437848694488
saI8962
as(S'false'
p8183
S'false'
p8184
tp8185
(lp8186
(dp8187
g8176
F0.7967801158028527
sg8177
F0.2032198841971473
saI21243
as(S'true'
p8188
S'true'
p8189
tp8190
(lp8191
(dp8192
g8176
F0.0002898550724637681
sg8177
F0.9997101449275362
saI20700
ass(S'NEWTONS74'
p8193
g108
tp8194
(dp8195
(t(lp8196
(dp8197
S'false'
p8198
F0.49796
sS'true'
p8199
F0.50204
saI100000
ass(S'RESOLVE42'
p8200
g108
tp8201
(dp8202
(t(lp8203
(dp8204
S'false'
p8205
F0.4987
sS'true'
p8206
F0.5013
saI100000
ass(S'WEIGHT56'
p8207
g108
tp8208
(dp8209
(t(lp8210
(dp8211
S'false'
p8212
F0.30137
sS'true'
p8213
F0.69863
saI100000
ass(S'VELOCITY7'
p8214
g108
tp8215
(dp8216
(t(lp8217
(dp8218
S'false'
p8219
F0.50232
sS'true'
p8220
F0.49768
saI100000
ass(S'NEWTONS45'
p8221
g108
tp8222
(dp8223
(t(lp8224
(dp8225
S'false'
p8226
F0.49954
sS'true'
p8227
F0.50046
saI100000
ass(S'IDENTIFY41'
p8228
g108
tp8229
(dp8230
(t(lp8231
(dp8232
S'false'
p8233
F0.50031
sS'true'
p8234
F0.49969
saI100000
ass(S'SLIDING4'
p8235
g108
tp8236
(dp8237
(t(lp8238
(dp8239
S'false'
p8240
F0.10174
sS'true'
p8241
F0.89826
saI100000
ass(S'KNOWN8'
p8242
g108
tp8243
(dp8244
(t(lp8245
(dp8246
S'false'
p8247
F0.49532
sS'true'
p8248
F0.50468
saI100000
ass(S'NEED1'
p8249
g108
tp8250
(dp8251
(t(lp8252
(dp8253
S'false'
p8254
F0.50004
sS'true'
p8255
F0.49996
saI100000
ass(S'GOAL_113'
p8256
S'GOAL_110, GOAL68'
p8257
tp8258
(dp8259
(S'false'
p8260
S'true'
p8261
tp8262
(lp8263
(dp8264
S'false'
p8265
F0.7982989419535863
sS'true'
p8266
F0.20170105804641375
saI34214
as(S'true'
p8267
S'false'
p8268
tp8269
(lp8270
(dp8271
g8265
F0.8026886110936616
sg8266
F0.19731138890633834
saI15919
as(S'false'
p8272
S'false'
p8273
tp8274
(lp8275
(dp8276
g8265
F0.8013931111832591
sg8266
F0.19860688881674093
saI33881
as(S'true'
p8277
S'true'
p8278
tp8279
(lp8280
(dp8281
g8265
F6.255473539346929e-05
sg8266
F0.9999374452646065
saI15986
ass(S'GOAL_84'
p8282
S'GOAL_83, CHOOSE47'
p8283
tp8284
(dp8285
(S'false'
p8286
S'true'
p8287
tp8288
(lp8289
(dp8290
S'false'
p8291
F0.8034572757877217
sS'true'
p8292
F0.19654272421227825
saI26437
as(S'true'
p8293
S'false'
p8294
tp8295
(lp8296
(dp8297
g8291
F0.8018615325768201
sg8292
F0.1981384674231799
saI23529
as(S'false'
p8298
S'false'
p8299
tp8300
(lp8301
(dp8302
g8291
F0.7991091480760593
sg8292
F0.2008908519239407
saI26716
as(S'true'
p8303
S'true'
p8304
tp8305
(lp8306
(dp8307
g8291
F8.577064928381508e-05
sg8292
F0.9999142293507162
saI23318
ass(S'SNode_46'
p8308
S'SNode_44, VALUE3'
p8309
tp8310
(dp8311
(S'false'
p8312
S'true'
p8313
tp8314
(lp8315
(dp8316
S'false'
p8317
F0.8978862667387257
sS'true'
p8318
F0.10211373326127425
saI33306
as(S'true'
p8319
S'false'
p8320
tp8321
(lp8322
(dp8323
g8317
F0.9000948091964921
sg8318
F0.09990519080350795
saI16876
as(S'false'
p8324
S'false'
p8325
tp8326
(lp8327
(dp8328
g8317
F0.8985480888727229
sg8318
F0.10145191112727714
saI32991
as(S'true'
p8329
S'true'
p8330
tp8331
(lp8332
(dp8333
g8317
F5.942829975634397e-05
sg8318
F0.9999405717002436
saI16827
ass(S'GOAL_114'
p8334
S'GOAL_110, GOAL68'
p8335
tp8336
(dp8337
(S'false'
p8338
S'true'
p8339
tp8340
(lp8341
(dp8342
S'false'
p8343
F0.7986789033728883
sS'true'
p8344
F0.2013210966271117
saI34214
as(S'true'
p8345
S'false'
p8346
tp8347
(lp8348
(dp8349
g8343
F0.7959670833595075
sg8344
F0.2040329166404925
saI15919
as(S'false'
p8350
S'false'
p8351
tp8352
(lp8353
(dp8354
g8343
F0.8035477111065199
sg8344
F0.19645228889348013
saI33881
as(S'true'
p8355
S'true'
p8356
tp8357
(lp8358
(dp8359
g8343
F0.00018766420618040785
sg8344
F0.9998123357938196
saI15986
ass(S'SNode_100'
p8360
S'GOAL_98, IDENTIFY59'
p8361
tp8362
(dp8363
(S'false'
p8364
S'true'
p8365
tp8366
(lp8367
(dp8368
S'false'
p8369
F0.799961756993007
sS'true'
p8370
F0.200038243006993
saI36608
as(S'true'
p8371
S'false'
p8372
tp8373
(lp8374
(dp8375
g8369
F0.8024561139154675
sg8370
F0.19754388608453252
saI13273
as(S'false'
p8376
S'false'
p8377
tp8378
(lp8379
(dp8380
g8369
F0.7976325911479495
sg8370
F0.20236740885205048
saI36918
as(S'true'
p8381
S'true'
p8382
tp8383
(lp8384
(dp8385
g8369
F0.00015150367396409362
sg8370
F0.9998484963260359
saI13201
ass(S'GOAL_62'
p8386
S'GOAL_61, WRITE30'
p8387
tp8388
(dp8389
(S'false'
p8390
S'true'
p8391
tp8392
(lp8393
(dp8394
S'false'
p8395
F0.8009933162497028
sS'true'
p8396
F0.1990066837502972
saI37853
as(S'true'
p8397
S'false'
p8398
tp8399
(lp8400
(dp8401
g8395
F0.802213666987488
sg8396
F0.19778633301251203
saI12468
as(S'false'
p8402
S'false'
p8403
tp8404
(lp8405
(dp8406
g8395
F0.8000426575663858
sg8396
F0.19995734243361415
saI37508
as(S'true'
p8407
S'true'
p8408
tp8409
(lp8410
(dp8411
g8395
F0.0001643250349190699
sg8396
F0.999835674965081
saI12171
ass(S'GOAL65'
p8412
g108
tp8413
(dp8414
(t(lp8415
(dp8416
S'false'
p8417
F0.49834
sS'true'
p8418
F0.50166
saI100000
ass(S'SNode_117'
p8419
S'GOAL_113, NEED36'
p8420
tp8421
(dp8422
(S'false'
p8423
S'true'
p8424
tp8425
(lp8426
(dp8427
S'false'
p8428
F0.8018692708645377
sS'true'
p8429
F0.19813072913546223
saI33382
as(S'true'
p8430
S'false'
p8431
tp8432
(lp8433
(dp8434
g8428
F0.7978306164971197
sg8429
F0.20216938350288025
saI16318
as(S'false'
p8435
S'false'
p8436
tp8437
(lp8438
(dp8439
g8428
F0.798889610773138
sg8429
F0.20111038922686197
saI33862
as(S'true'
p8440
S'true'
p8441
tp8442
(lp8443
(dp8444
g8428
F0.00018250395425234214
sg8429
F0.9998174960457477
saI16438
ass.