(dp0
S'GOAL68'
p1
(lp2
S'false'
p3
aS'true'
p4
asS'RESOLVE37'
p5
(lp6
S'false'
p7
aS'true'
p8
asS'FIND58'
p9
(lp10
S'false'
p11
aS'true'
p12
asS'NULL48'
p13
(lp14
S'false'
p15
aS'true'
p16
asS'SNode_137'
p17
(lp18
S'false'
p19
aS'true'
p20
asS'SNode_136'
p21
(lp22
S'false'
p23
aS'true'
p24
asS'SNode_135'
p25
(lp26
S'false'
p27
aS'true'
p28
asS'SNode_134'
p29
(lp30
S'false'
p31
aS'true'
p32
asS'RESOLVE38'
p33
(lp34
S'false'
p35
aS'true'
p36
asS'SNode_132'
p37
(lp38
S'false'
p39
aS'true'
p40
asS'SNode_131'
p41
(lp42
S'false'
p43
aS'true'
p44
asS'GOAL66'
p45
(lp46
S'false'
p47
aS'true'
p48
asS'WRITE31'
p49
(lp50
S'false'
p51
aS'true'
p52
asS'WRITE30'
p53
(lp54
S'false'
p55
aS'true'
p56
asS'VALUE3'
p57
(lp58
S'false'
p59
aS'true'
p60
asS'HORIZ53'
p61
(lp62
S'false'
p63
aS'true'
p64
asS'SNode_155'
p65
(lp66
S'false'
p67
aS'true'
p68
asS'NEED36'
p69
(lp70
S'false'
p71
aS'true'
p72
asS'SNode_33'
p73
(lp74
S'false'
p75
aS'true'
p76
asS'SNode_31'
p77
(lp78
S'false'
p79
aS'true'
p80
asS'SNode_37'
p81
(lp82
S'false'
p83
aS'true'
p84
asS'SNode_34'
p85
(lp86
S'false'
p87
aS'true'
p88
asS'SNode_38'
p89
(lp90
S'false'
p91
aS'true'
p92
asS'IDENTIFY59'
p93
(lp94
S'false'
p95
aS'true'
p96
asS'SNode_112'
p97
(lp98
S'false'
p99
aS'true'
p100
asS'VECTOR69'
p101
(lp102
S'false'
p103
aS'true'
p104
asS'SNode_120'
p105
(lp106
S'false'
p107
aS'true'
p108
asS'FIND49'
p109
(lp110
S'false'
p111
aS'true'
p112
asS'SNode_123'
p113
(lp114
S'false'
p115
aS'true'
p116
asS'SNode_124'
p117
(lp118
S'false'
p119
aS'true'
p120
asS'SNode_125'
p121
(lp122
S'false'
p123
aS'true'
p124
asS'SYSTEM46'
p125
(lp126
S'false'
p127
aS'true'
p128
asS'SNode_128'
p129
(lp130
S'false'
p131
aS'true'
p132
asS'GOAL65'
p133
(lp134
S'false'
p135
aS'true'
p136
asS'RESOLVE40'
p137
(lp138
S'false'
p139
aS'true'
p140
asS'RESOLVE42'
p141
(lp142
S'false'
p143
aS'true'
p144
asS'IDENTIFY10'
p145
(lp146
S'false'
p147
aS'true'
p148
asS'GOAL_150'
p149
(lp150
S'false'
p151
aS'true'
p152
asS'VAR20'
p153
(lp154
S'false'
p155
aS'true'
p156
asS'SNode_133'
p157
(lp158
S'false'
p159
aS'true'
p160
asS'INCLINE51'
p161
(lp162
S'false'
p163
aS'true'
p164
asS'IDENTIFY9'
p165
(lp166
S'false'
p167
aS'true'
p168
asS'COMPO16'
p169
(lp170
S'false'
p171
aS'true'
p172
asS'VELOCITY7'
p173
(lp174
S'false'
p175
aS'true'
p176
asS'GOAL_147'
p177
(lp178
S'false'
p179
aS'true'
p180
asS'SLIDING4'
p181
(lp182
S'false'
p183
aS'true'
p184
asS'SNode_88'
p185
(lp186
S'false'
p187
aS'true'
p188
asS'VECTOR27'
p189
(lp190
S'false'
p191
aS'true'
p192
asS'APPLY77'
p193
(lp194
S'false'
p195
aS'true'
p196
asS'DISPLACEM0'
p197
(lp198
S'false'
p199
aS'true'
p200
asS'KINE29'
p201
(lp202
S'false'
p203
aS'true'
p204
asS'GOAL_149'
p205
(lp206
S'false'
p207
aS'true'
p208
asS'SNode_154'
p209
(lp210
S'false'
p211
aS'true'
p212
asS'SNode_156'
p213
(lp214
S'false'
p215
aS'true'
p216
asS'SNode_151'
p217
(lp218
S'false'
p219
aS'true'
p220
asS'SNode_152'
p221
(lp222
S'false'
p223
aS'true'
p224
asS'IDENTIFY22'
p225
(lp226
S'false'
p227
aS'true'
p228
asS'GOAL_142'
p229
(lp230
S'false'
p231
aS'true'
p232
asS'EQUATION28'
p233
(lp234
S'false'
p235
aS'true'
p236
asS'GOAL_146'
p237
(lp238
S'false'
p239
aS'true'
p240
asS'SNode_19'
p241
(lp242
S'false'
p243
aS'true'
p244
asS'SNode_18'
p245
(lp246
S'false'
p247
aS'true'
p248
asS'VECTOR73'
p249
(lp250
S'false'
p251
aS'true'
p252
asS'SNode_11'
p253
(lp254
S'false'
p255
aS'true'
p256
asS'SNode_10'
p257
(lp258
S'false'
p259
aS'true'
p260
asS'SNode_13'
p261
(lp262
S'false'
p263
aS'true'
p264
asS'SNode_12'
p265
(lp266
S'false'
p267
aS'true'
p268
asS'SNode_15'
p269
(lp270
S'false'
p271
aS'true'
p272
asS'SNode_14'
p273
(lp274
S'false'
p275
aS'true'
p276
asS'SNode_17'
p277
(lp278
S'false'
p279
aS'true'
p280
asS'SNode_16'
p281
(lp282
S'false'
p283
aS'true'
p284
asS'SNode_74'
p285
(lp286
S'false'
p287
aS'true'
p288
asS'GIVEN_1'
p289
(lp290
S'false'
p291
aS'true'
p292
asS'SNode_91'
p293
(lp294
S'false'
p295
aS'true'
p296
asS'GOAL72'
p297
(lp298
S'false'
p299
aS'true'
p300
asS'SNode_93'
p301
(lp302
S'false'
p303
aS'true'
p304
asS'SNode_92'
p305
(lp306
S'false'
p307
aS'true'
p308
asS'SNode_95'
p309
(lp310
S'false'
p311
aS'true'
p312
asS'SNode_94'
p313
(lp314
S'false'
p315
aS'true'
p316
asS'SNode_97'
p317
(lp318
S'false'
p319
aS'true'
p320
asS'GOAL_49'
p321
(lp322
S'false'
p323
aS'true'
p324
asS'GOAL_48'
p325
(lp326
S'false'
p327
aS'true'
p328
asS'VECTOR70'
p329
(lp330
S'false'
p331
aS'true'
p332
asS'SYSTEM18'
p333
(lp334
S'false'
p335
aS'true'
p336
asS'GIVEN21'
p337
(lp338
S'false'
p339
aS'true'
p340
asS'SNode_60'
p341
(lp342
S'false'
p343
aS'true'
p344
asS'IDENTIFY39'
p345
(lp346
S'false'
p347
aS'true'
p348
asS'KNOWN6'
p349
(lp350
S'false'
p351
aS'true'
p352
asS'FORCE60'
p353
(lp354
S'false'
p355
aS'true'
p356
asS'KNOWN8'
p357
(lp358
S'false'
p359
aS'true'
p360
asS'CHOOSE62'
p361
(lp362
S'false'
p363
aS'true'
p364
asS'GOAL_130'
p365
(lp366
S'false'
p367
aS'true'
p368
asS'RApp8'
p369
(lp370
S'false'
p371
aS'true'
p372
asS'SNode_86'
p373
(lp374
S'false'
p375
aS'true'
p376
asS'SNode_68'
p377
(lp378
S'false'
p379
aS'true'
p380
asS'SNode_64'
p381
(lp382
S'false'
p383
aS'true'
p384
asS'RApp1'
p385
(lp386
S'false'
p387
aS'true'
p388
asS'RApp2'
p389
(lp390
S'false'
p391
aS'true'
p392
asS'RApp3'
p393
(lp394
S'false'
p395
aS'true'
p396
asS'RApp4'
p397
(lp398
S'false'
p399
aS'true'
p400
asS'RApp5'
p401
(lp402
S'false'
p403
aS'true'
p404
asS'RApp6'
p405
(lp406
S'false'
p407
aS'true'
p408
asS'RApp7'
p409
(lp410
S'false'
p411
aS'true'
p412
asS'RApp9'
p413
(lp414
S'false'
p415
aS'true'
p416
asS'DEFINE23'
p417
(lp418
S'false'
p419
aS'true'
p420
asS'GOAL_56'
p421
(lp422
S'false'
p423
aS'true'
p424
asS'GOAL_57'
p425
(lp426
S'false'
p427
aS'true'
p428
asS'GOAL_50'
p429
(lp430
S'false'
p431
aS'true'
p432
asS'GOAL_53'
p433
(lp434
S'false'
p435
aS'true'
p436
asS'CHOOSE47'
p437
(lp438
S'false'
p439
aS'true'
p440
asS'SNode_119'
p441
(lp442
S'false'
p443
aS'true'
p444
asS'MAXIMIZE34'
p445
(lp446
S'false'
p447
aS'true'
p448
asS'GOAL_129'
p449
(lp450
S'false'
p451
aS'true'
p452
asS'SNode_118'
p453
(lp454
S'false'
p455
aS'true'
p456
asS'GOAL_127'
p457
(lp458
S'false'
p459
aS'true'
p460
asS'GOAL_126'
p461
(lp462
S'false'
p463
aS'true'
p464
asS'KINEMATI17'
p465
(lp466
S'false'
p467
aS'true'
p468
asS'GOAL_121'
p469
(lp470
S'false'
p471
aS'true'
p472
asS'SNode_65'
p473
(lp474
S'false'
p475
aS'true'
p476
asS'IDENTIFY43'
p477
(lp478
S'false'
p479
aS'true'
p480
asS'SNode_75'
p481
(lp482
S'false'
p483
aS'true'
p484
asS'IDENTIFY41'
p485
(lp486
S'false'
p487
aS'true'
p488
asS'SNode_73'
p489
(lp490
S'false'
p491
aS'true'
p492
asS'SNode_71'
p493
(lp494
S'false'
p495
aS'true'
p496
asS'SNode_70'
p497
(lp498
S'false'
p499
aS'true'
p500
asS'NEED1'
p501
(lp502
S'false'
p503
aS'true'
p504
asS'WEIGHT56'
p505
(lp506
S'false'
p507
aS'true'
p508
asS'SNode_67'
p509
(lp510
S'false'
p511
aS'true'
p512
asS'TRY15'
p513
(lp514
S'false'
p515
aS'true'
p516
asS'TRY14'
p517
(lp518
S'false'
p519
aS'true'
p520
asS'TRY11'
p521
(lp522
S'false'
p523
aS'true'
p524
asS'TRY13'
p525
(lp526
S'false'
p527
aS'true'
p528
asS'TRY12'
p529
(lp530
S'false'
p531
aS'true'
p532
asS'GOAL_61'
p533
(lp534
S'false'
p535
aS'true'
p536
asS'GOAL_63'
p537
(lp538
S'false'
p539
aS'true'
p540
asS'GOAL_62'
p541
(lp542
S'false'
p543
aS'true'
p544
asS'GOAL_66'
p545
(lp546
S'false'
p547
aS'true'
p548
asS'GOAL_69'
p549
(lp550
S'false'
p551
aS'true'
p552
asS'SNode_115'
p553
(lp554
S'false'
p555
aS'true'
p556
asS'GOAL_143'
p557
(lp558
S'false'
p559
aS'true'
p560
asS'GOAL_113'
p561
(lp562
S'false'
p563
aS'true'
p564
asS'GOAL_110'
p565
(lp566
S'false'
p567
aS'true'
p568
asS'GOAL_111'
p569
(lp570
S'false'
p571
aS'true'
p572
asS'SNode_9'
p573
(lp574
S'false'
p575
aS'true'
p576
asS'SNode_8'
p577
(lp578
S'false'
p579
aS'true'
p580
asS'GOAL_114'
p581
(lp582
S'false'
p583
aS'true'
p584
asS'SNode_5'
p585
(lp586
S'false'
p587
aS'true'
p588
asS'CHOOSE19'
p589
(lp590
S'false'
p591
aS'true'
p592
asS'SNode_7'
p593
(lp594
S'false'
p595
aS'true'
p596
asS'SNode_6'
p597
(lp598
S'false'
p599
aS'true'
p600
asS'SNode_3'
p601
(lp602
S'false'
p603
aS'true'
p604
asS'SNode_42'
p605
(lp606
S'false'
p607
aS'true'
p608
asS'SNode_43'
p609
(lp610
S'false'
p611
aS'true'
p612
asS'SNode_40'
p613
(lp614
S'false'
p615
aS'true'
p616
asS'SNode_41'
p617
(lp618
S'false'
p619
aS'true'
p620
asS'SNode_46'
p621
(lp622
S'false'
p623
aS'true'
p624
asS'SNode_47'
p625
(lp626
S'false'
p627
aS'true'
p628
asS'SNode_44'
p629
(lp630
S'false'
p631
aS'true'
p632
asS'NORMAL52'
p633
(lp634
S'false'
p635
aS'true'
p636
asS'NORMAL50'
p637
(lp638
S'false'
p639
aS'true'
p640
asS'IDENTIFY55'
p641
(lp642
S'false'
p643
aS'true'
p644
asS'APPLY32'
p645
(lp646
S'false'
p647
aS'true'
p648
asS'GOAL_83'
p649
(lp650
S'false'
p651
aS'true'
p652
asS'SNode_54'
p653
(lp654
S'false'
p655
aS'true'
p656
asS'WRITE64'
p657
(lp658
S'false'
p659
aS'true'
p660
asS'WRITE63'
p661
(lp662
S'false'
p663
aS'true'
p664
asS'SUM75'
p665
(lp666
S'false'
p667
aS'true'
p668
asS'SNode_117'
p669
(lp670
S'false'
p671
aS'true'
p672
asS'GOAL_79'
p673
(lp674
S'false'
p675
aS'true'
p676
asS'GOAL_87'
p677
(lp678
S'false'
p679
aS'true'
p680
asS'GOAL_72'
p681
(lp682
S'false'
p683
aS'true'
p684
asS'GOAL_2'
p685
(lp686
S'false'
p687
aS'true'
p688
asS'GOAL_104'
p689
(lp690
S'false'
p691
aS'true'
p692
asS'GOAL_107'
p693
(lp694
S'false'
p695
aS'true'
p696
asS'NEWTONS45'
p697
(lp698
S'false'
p699
aS'true'
p700
asS'GOAL_103'
p701
(lp702
S'false'
p703
aS'true'
p704
asS'GOAL_84'
p705
(lp706
S'false'
p707
aS'true'
p708
asS'GOAL_109'
p709
(lp710
S'false'
p711
aS'true'
p712
asS'GOAL_108'
p713
(lp714
S'false'
p715
aS'true'
p716
asS'BUGGY54'
p717
(lp718
S'false'
p719
aS'true'
p720
asS'SNode_116'
p721
(lp722
S'false'
p723
aS'true'
p724
asS'SNode_55'
p725
(lp726
S'false'
p727
aS'true'
p728
asS'CONSTANT5'
p729
(lp730
S'false'
p731
aS'true'
p732
asS'GOAL_81'
p733
(lp734
S'false'
p735
aS'true'
p736
asS'GOAL_80'
p737
(lp738
S'false'
p739
aS'true'
p740
asS'SNode_51'
p741
(lp742
S'false'
p743
aS'true'
p744
asS'SNode_52'
p745
(lp746
S'false'
p747
aS'true'
p748
asS'SNode_59'
p749
(lp750
S'false'
p751
aS'true'
p752
asS'WEIGHT57'
p753
(lp754
S'false'
p755
aS'true'
p756
asS'RApp12'
p757
(lp758
S'false'
p759
aS'true'
p760
asS'RApp13'
p761
(lp762
S'false'
p763
aS'true'
p764
asS'RApp10'
p765
(lp766
S'false'
p767
aS'true'
p768
asS'RApp11'
p769
(lp770
S'false'
p771
aS'true'
p772
asS'GRAV78'
p773
(lp774
S'false'
p775
aS'true'
p776
asS'STRAT_90'
p777
(lp778
S'SNode_92_1'
p779
aS'SNode_91_2'
p780
asS'APPLY61'
p781
(lp782
S'false'
p783
aS'true'
p784
asS'SNode_4'
p785
(lp786
S'false'
p787
aS'true'
p788
asS'CHOOSE35'
p789
(lp790
S'false'
p791
aS'true'
p792
asS'SNode_102'
p793
(lp794
S'false'
p795
aS'true'
p796
asS'GRAV2'
p797
(lp798
S'false'
p799
aS'true'
p800
asS'SNode_100'
p801
(lp802
S'false'
p803
aS'true'
p804
asS'SNode_106'
p805
(lp806
S'false'
p807
aS'true'
p808
asS'TRY24'
p809
(lp810
S'false'
p811
aS'true'
p812
asS'TRY25'
p813
(lp814
S'false'
p815
aS'true'
p816
asS'TRY26'
p817
(lp818
S'false'
p819
aS'true'
p820
asS'AXIS33'
p821
(lp822
S'false'
p823
aS'true'
p824
asS'NEED67'
p825
(lp826
S'false'
p827
aS'true'
p828
asS'GOAL_98'
p829
(lp830
S'false'
p831
aS'true'
p832
asS'GOAL_99'
p833
(lp834
S'false'
p835
aS'true'
p836
asS'TRY76'
p837
(lp838
S'false'
p839
aS'true'
p840
asS'SNode_20'
p841
(lp842
S'false'
p843
aS'true'
p844
asS'SNode_21'
p845
(lp846
S'false'
p847
aS'true'
p848
asS'SNode_24'
p849
(lp850
S'false'
p851
aS'true'
p852
asS'SNode_25'
p853
(lp854
S'false'
p855
aS'true'
p856
asS'SNode_26'
p857
(lp858
S'false'
p859
aS'true'
p860
asS'SNode_27'
p861
(lp862
S'false'
p863
aS'true'
p864
asS'SNode_28'
p865
(lp866
S'false'
p867
aS'true'
p868
asS'SNode_29'
p869
(lp870
S'false'
p871
aS'true'
p872
asS'SNode_122'
p873
(lp874
S'false'
p875
aS'true'
p876
asS'EQUAL71'
p877
(lp878
S'false'
p879
aS'true'
p880
asS'NEWTONS74'
p881
(lp882
S'false'
p883
aS'true'
p884
asS'VECTOR44'
p885
(lp886
S'false'
p887
aS'true'
p888
asS'GOAL_153'
p889
(lp890
S'false'
p891
aS'true'
p892
as.